(iparams
Statistics
p0
(dp1
S'numMissedCars'
p2
(lp3
F0.26666666666666666
aF0.8
aF6.4
aF17.533333333333335
aF39.6
aF70.53333333333333
aF116.06666666666666
aF156.2
asS'carsRequestingLC'
p4
(lp5
F52.0
aF107.06666666666666
aF248.13333333333333
aF390.53333333333336
aF565.2666666666667
aF747.0666666666667
aF947.8666666666667
aF1107.9333333333334
asS'carsDoLC'
p6
(lp7
F49.266666666666666
aF96.8
aF195.4
aF270.8
aF337.8666666666667
aF377.4
aF385.3333333333333
aF371.6
asS'turnTime'
p8
(lp9
F0.162027374903361
aF0.3410868962605794
aF0.7621016661326091
aF1.147865597407023
aF1.5072430928548177
aF1.7334432125091552
aF1.8521936257680258
aF2.652699867884318
asS'params'
p10
I0
sS'carsInCS'
p11
(lp12
F52.0
aF107.0
aF247.0
aF388.2
aF549.9333333333333
aF623.5333333333333
aF582.6666666666666
aF515.0666666666667
asS'numMadeCars'
p13
(lp14
F24.2
aF47.93333333333333
aF93.13333333333334
aF131.6
aF160.26666666666668
aF180.6
aF185.2
aF177.46666666666667
asS'statsPerSim'
p15
(lp16
sS'carsMakingLC'
p17
(lp18
F49.266666666666666
aF96.8
aF195.4
aF270.8
aF337.8666666666667
aF377.4
aF385.3333333333333
aF371.6
asS'costPerLaneChange'
p19
(lp20
F0.5601750377984221
aF0.5589921615936707
aF0.56367110761282
aF0.5929462861267534
aF0.8114488927179554
aF1.1405433052533902
aF1.3788349025987443
aF1.6719435572244747
asb.