(lp0
(iparams
RoadParameters
p1
(dp2
S'turnTime'
p3
F7.78061224489796
sS'flow'
p4
F5.5
sba(iparams
Statistics
p5
(dp6
S'numMissedCars'
p7
(lp8
I0
aI0
aI0
asS'carsMakingLC'
p9
(lp10
I12
aI23
aI27
asS'carsDoLC'
p11
(lp12
I12
aI23
aI27
asg3
(lp13
F0.005502939224243164
aF0.02173900604248047
aF0.037843942642211914
asS'params'
p14
g1
sS'carsInCS'
p15
(lp16
I15
aI28
aI36
asS'carsRequestingLC'
p17
(lp18
I15
aI28
aI36
asS'statsPerSim'
p19
(lp20
sS'numMadeCars'
p21
(lp22
I0
aI0
aI2
asS'costPerLaneChange'
p23
(lp24
F0.7849130162142793
aF0.7783295280604794
aF0.7507334348592075
asba(iparams
Statistics
p25
(dp26
g7
(lp27
I0
aI1
aI0
asg9
(lp28
I21
aI37
aI53
asg11
(lp29
I21
aI37
aI53
asg3
(lp30
F0.008646011352539062
aF0.029232025146484375
aF0.07084393501281738
asg14
g1
sg15
(lp31
I30
aI53
aI83
asg17
(lp32
I30
aI53
aI83
asg19
(lp33
sg21
(lp34
I0
aI0
aI1
asg23
(lp35
F0.7790135268297055
aF0.7562507608387744
aF0.7576311906415902
asba(iparams
Statistics
p36
(dp37
g7
(lp38
I0
aI2
aI1
asg9
(lp39
I31
aI51
aI72
asg11
(lp40
I31
aI51
aI72
asg3
(lp41
F0.011965036392211914
aF0.044226884841918945
aF0.09837102890014648
asg14
g1
sg15
(lp42
I48
aI83
aI119
asg17
(lp43
I48
aI83
aI119
asg19
(lp44
sg21
(lp45
I0
aI0
aI2
asg23
(lp46
F0.7107389446125303
aF0.7473843316418206
aF0.7657864970587351
asba(iparams
Statistics
p47
(dp48
g7
(lp49
I0
aI1
aI2
asg9
(lp50
I32
aI66
aI89
asg11
(lp51
I32
aI66
aI89
asg3
(lp52
F0.013614892959594727
aF0.05150580406188965
aF0.11096787452697754
asg14
g1
sg15
(lp53
I58
aI112
aI151
asg17
(lp54
I58
aI112
aI151
asg19
(lp55
sg21
(lp56
I0
aI0
aI0
asg23
(lp57
F0.7195270088685835
aF0.6292277898577276
aF0.6548054437462437
asba(iparams
Statistics
p58
(dp59
g7
(lp60
I0
aI0
aI2
asg9
(lp61
I33
aI66
aI102
asg11
(lp62
I33
aI66
aI102
asg3
(lp63
F0.013189077377319336
aF0.0539090633392334
aF0.12342691421508789
asg14
g1
sg15
(lp64
I68
aI143
aI206
asg17
(lp65
I76
aI151
aI214
asg19
(lp66
sg21
(lp67
I0
aI0
aI4
asg23
(lp68
F0.6191909962294266
aF0.6817868771021146
aF0.5918162838368345
asba(iparams
Statistics
p69
(dp70
g7
(lp71
I0
aI3
aI2
asg9
(lp72
I40
aI61
aI96
asg11
(lp73
I40
aI61
aI96
asg3
(lp74
F0.014014959335327148
aF0.04608798027038574
aF0.10159897804260254
asg14
g1
sg15
(lp75
I85
aI148
aI209
asg17
(lp76
I88
aI172
aI246
asg19
(lp77
sg21
(lp78
I0
aI0
aI1
asg23
(lp79
F0.49711625907014245
aF0.5127858278886778
aF0.6383563558183282
asba(iparams
Statistics
p80
(dp81
g7
(lp82
I0
aI2
aI2
asg9
(lp83
I37
aI60
aI95
asg11
(lp84
I37
aI60
aI95
asg3
(lp85
F0.010623931884765625
aF0.037697792053222656
aF0.08664989471435547
asg14
g1
sg15
(lp86
I79
aI137
aI208
asg17
(lp87
I103
aI184
aI278
asg19
(lp88
sg21
(lp89
I0
aI0
aI2
asg23
(lp90
F0.6026362573269318
aF0.6037986921078561
aF0.6352020141727602
asba(iparams
Statistics
p91
(dp92
g7
(lp93
I0
aI1
aI6
asg9
(lp94
I32
aI61
aI94
asg11
(lp95
I32
aI61
aI94
asg3
(lp96
F0.00816798210144043
aF0.03077077865600586
aF0.06899809837341309
asg14
g1
sg15
(lp97
I70
aI118
aI192
asg17
(lp98
I118
aI234
aI354
asg19
(lp99
sg21
(lp100
I0
aI0
aI4
asg23
(lp101
F0.645151303413061
aF0.7977850480877252
aF0.6869587790973596
asba(iparams
Statistics
p102
(dp103
g7
(lp104
I0
aI0
aI4
asg9
(lp105
I29
aI55
aI74
asg11
(lp106
I29
aI55
aI74
asg3
(lp107
F0.00642085075378418
aF0.021893978118896484
aF0.04853510856628418
asg14
g1
sg15
(lp108
I51
aI101
aI142
asg17
(lp109
I133
aI263
aI378
asg19
(lp110
sg21
(lp111
I0
aI0
aI3
asg23
(lp112
F0.8618776191049863
aF0.7457107815592092
aF0.6798990681086886
asba(iparams
Statistics
p113
(dp114
g7
(lp115
I0
aI2
aI8
asg9
(lp116
I22
aI40
aI61
asg11
(lp117
I22
aI40
aI61
asg3
(lp118
F0.004383087158203125
aF0.014362096786499023
aF0.04208183288574219
asg14
g1
sg15
(lp119
I33
aI67
aI98
asg17
(lp120
I141
aI284
aI442
asg19
(lp121
sg21
(lp122
I0
aI0
aI5
asg23
(lp123
F0.8934278664093228
aF0.8009821015855951
aF0.9024560822271457
asba(iparams
Statistics
p124
(dp125
g7
(lp126
I0
aI0
aI3
asg9
(lp127
I13
aI25
aI41
asg11
(lp128
I13
aI25
aI41
asg3
(lp129
F0.0030040740966796875
aF0.007411003112792969
aF0.020081043243408203
asg14
g1
sg15
(lp130
I17
aI33
aI51
asg17
(lp131
I162
aI316
aI483
asg19
(lp132
sg21
(lp133
I0
aI0
aI3
asg23
(lp134
F0.8341618671572983
aF0.902824144047299
aF0.9963148117802052
asba.