(lp0
(iparams
RoadParameters
p1
(dp2
S'percentContinuing'
p3
I1
sS'turnTime'
p4
F7.78061224489796
sS'flow'
p5
F5.5
sba(iparams
Statistics
p6
(dp7
S'numMissedCars'
p8
(lp9
I0
aI0
aI0
aI0
aI0
aI0
aI0
aI0
aI0
aI0
aI4
aI0
aI3
aI3
aI6
aI6
aI7
aI12
aI17
aI21
aI22
aI30
aI35
aI44
aI38
aI52
aI54
aI57
aI78
aI75
aI82
aI91
aI86
aI94
aI99
aI98
aI89
aI79
aI62
aI71
aI83
aI82
aI76
aI67
aI59
aI73
aI47
aI52
aI55
aI48
aI56
aI37
aI39
aI43
aI32
aI37
aI30
aI40
aI26
aI28
aI27
aI15
aI23
aI26
aI28
aI18
aI19
aI22
aI13
aI26
aI19
aI23
aI15
aI18
aI17
aI14
aI14
aI20
aI28
aI19
aI22
aI10
aI15
aI10
aI16
aI14
aI24
aI17
aI22
aI24
aI24
aI23
aI15
aI21
aI22
aI14
aI16
aI11
aI10
aI14
asS'carsMakingLC'
p10
(lp11
I39
aI78
aI118
aI156
aI193
aI229
aI252
aI280
aI306
aI343
aI373
aI393
aI415
aI445
aI448
aI476
aI499
aI498
aI535
aI544
aI544
aI559
aI584
aI618
aI642
aI647
aI681
aI673
aI700
aI713
aI744
aI769
aI757
aI774
aI810
aI798
aI815
aI842
aI855
aI848
aI855
aI859
aI855
aI810
aI817
aI825
aI815
aI821
aI840
aI817
aI803
aI843
aI818
aI802
aI820
aI805
aI796
aI809
aI791
aI775
aI788
aI765
aI755
aI776
aI769
aI762
aI741
aI747
aI746
aI740
aI749
aI726
aI762
aI771
aI768
aI759
aI749
aI757
aI752
aI769
aI756
aI756
aI757
aI764
aI745
aI748
aI744
aI733
aI705
aI756
aI752
aI736
aI757
aI753
aI733
aI740
aI754
aI752
aI773
aI739
asS'carsDoLC'
p12
(lp13
I39
aI78
aI118
aI156
aI193
aI229
aI252
aI280
aI306
aI343
aI373
aI393
aI415
aI445
aI448
aI476
aI499
aI498
aI535
aI544
aI544
aI559
aI584
aI618
aI642
aI647
aI681
aI673
aI700
aI713
aI744
aI769
aI757
aI774
aI810
aI798
aI815
aI842
aI855
aI848
aI855
aI859
aI855
aI810
aI817
aI825
aI815
aI821
aI840
aI817
aI803
aI843
aI818
aI802
aI820
aI805
aI796
aI809
aI791
aI775
aI788
aI765
aI755
aI776
aI769
aI762
aI741
aI747
aI746
aI740
aI749
aI726
aI762
aI771
aI768
aI759
aI749
aI757
aI752
aI769
aI756
aI756
aI757
aI764
aI745
aI748
aI744
aI733
aI705
aI756
aI752
aI736
aI757
aI753
aI733
aI740
aI754
aI752
aI773
aI739
asg4
(lp14
F0.004330873489379883
aF0.02043604850769043
aF0.08063292503356934
aF0.15371489524841309
aF0.20128989219665527
aF0.38512301445007324
aF0.5421180725097656
aF0.5200300216674805
aF0.6623201370239258
aF0.8227870464324951
aF1.2480549812316895
aF1.434507131576538
aF1.301344871520996
aF1.4112560749053955
aF2.066295862197876
aF2.2896249294281006
aF2.2271668910980225
aF2.6584959030151367
aF2.8204469680786133
aF2.8522160053253174
aF2.9543700218200684
aF3.8127810955047607
aF5.020568132400513
aF5.629420042037964
aF6.355262041091919
aF7.221797943115234
aF7.124464988708496
aF6.436432123184204
aF7.3659281730651855
aF8.227971076965332
aF9.573891878128052
aF10.115798950195312
aF10.956286191940308
aF12.239435911178589
aF13.550289154052734
aF14.110697984695435
aF15.1058030128479
aF15.869824171066284
aF16.838508129119873
aF16.783639192581177
aF17.345703125
aF17.675623893737793
aF17.042991876602173
aF16.975033044815063
aF17.959044933319092
aF22.900169134140015
aF22.627706050872803
aF19.341105937957764
aF17.17871880531311
aF17.006407976150513
aF17.164842128753662
aF17.385236978530884
aF17.115206003189087
aF22.359588861465454
aF18.21361017227173
aF21.608643054962158
aF21.831734895706177
aF17.375011205673218
aF18.128993034362793
aF21.18097496032715
aF19.749227046966553
aF20.800811052322388
aF20.428614854812622
aF20.366616010665894
aF19.048691987991333
aF20.16669201850891
aF15.696717023849487
aF14.793487787246704
aF15.826431035995483
aF14.74758791923523
aF14.813705921173096
aF14.757407903671265
aF15.240280866622925
aF15.478230953216553
aF15.650352954864502
aF14.963608026504517
aF14.989655017852783
aF17.701833963394165
aF20.055000066757202
aF19.94443392753601
aF19.86015796661377
aF19.421700954437256
aF19.813241004943848
aF18.933242082595825
aF19.843425989151
aF19.677733898162842
aF19.553900003433228
aF19.687670946121216
aF19.57222604751587
aF15.559412002563477
aF14.856309175491333
aF14.712923049926758
aF15.136620044708252
aF15.107630014419556
aF14.73796820640564
aF15.24565601348877
aF15.45390796661377
aF14.828744888305664
aF14.884536981582642
aF14.563627004623413
asS'params'
p15
g1
sS'carsInCS'
p16
(lp17
I39
aI82
aI151
aI207
aI277
aI342
aI415
aI476
aI527
aI588
aI626
aI698
aI744
aI764
aI815
aI826
aI865
aI902
aI932
aI970
aI984
aI1013
aI1057
aI1114
aI1157
aI1204
aI1242
aI1230
aI1292
aI1343
aI1380
aI1423
aI1479
aI1510
aI1578
aI1593
aI1609
aI1657
aI1694
aI1710
aI1672
aI1618
aI1610
aI1580
aI1584
aI1549
aI1525
aI1528
aI1551
aI1551
aI1527
aI1548
aI1510
aI1529
aI1515
aI1497
aI1452
aI1438
aI1415
aI1384
aI1391
aI1371
aI1363
aI1355
aI1359
aI1338
aI1315
aI1291
aI1276
aI1276
aI1304
aI1322
aI1355
aI1351
aI1354
aI1329
aI1316
aI1299
aI1316
aI1327
aI1326
aI1309
aI1340
aI1365
aI1347
aI1320
aI1299
aI1283
aI1284
aI1301
aI1287
aI1276
aI1313
aI1311
aI1314
aI1334
aI1323
aI1336
aI1302
aI1269
asS'carsRequestingLC'
p18
(lp19
I39
aI114
aI194
aI295
aI402
aI518
aI642
aI756
aI897
aI1028
aI1169
aI1303
aI1449
aI1578
aI1720
aI1843
aI1994
aI2119
aI2238
aI2332
aI2454
aI2597
aI2691
aI2817
aI2895
aI2992
aI3036
aI3088
aI3120
aI3155
aI3180
aI3165
aI3130
aI3083
aI3049
aI2982
aI2877
aI2792
aI2702
aI2607
aI2528
aI2397
aI2308
aI2197
aI2151
aI2061
aI1972
aI1906
aI1881
aI1820
aI1755
aI1724
aI1621
aI1612
aI1602
aI1564
aI1510
aI1492
aI1472
aI1449
aI1459
aI1427
aI1409
aI1404
aI1403
aI1372
aI1349
aI1341
aI1330
aI1319
aI1340
aI1354
aI1397
aI1389
aI1390
aI1371
aI1354
aI1353
aI1370
aI1366
aI1356
aI1331
aI1365
aI1395
aI1372
aI1353
aI1339
aI1322
aI1317
aI1322
aI1313
aI1298
aI1333
aI1334
aI1342
aI1351
aI1341
aI1363
aI1338
aI1327
asS'statsPerSim'
p20
(lp21
sS'numMadeCars'
p22
(lp23
I0
aI0
aI1
aI0
aI1
aI2
aI6
aI5
aI8
aI7
aI11
aI14
aI14
aI21
aI23
aI21
aI34
aI39
aI35
aI40
aI49
aI51
aI66
aI61
aI74
aI73
aI90
aI88
aI103
aI100
aI109
aI134
aI150
aI156
aI176
aI171
aI200
aI204
aI212
aI216
aI214
aI235
aI216
aI220
aI221
aI216
aI221
aI224
aI204
aI223
aI226
aI222
aI205
aI206
aI211
aI207
aI228
aI204
aI203
aI186
aI186
aI192
aI201
aI201
aI195
aI210
aI216
aI205
aI217
aI199
aI192
aI185
aI178
aI179
aI186
aI207
aI186
aI201
aI200
aI192
aI207
aI207
aI183
aI206
aI181
aI205
aI208
aI227
aI204
aI186
aI212
aI200
aI183
aI175
aI199
aI187
aI189
aI199
aI194
aI213
asS'costPerLaneChange'
p24
(lp25
F0.7711475409836063
aF0.7767661023022477
aF0.7663336719216167
aF0.6788626713249122
aF0.6790875593362412
aF0.7218980294774495
aF0.7291621726537078
aF0.7378274657350186
aF0.7246016163340742
aF0.7676437209659484
aF0.7650966667699421
aF0.7457353457065482
aF0.7709566452857991
aF0.7519926659802151
aF0.7685928513840434
aF0.7795612185212759
aF0.7984915813890664
aF0.7861416534182993
aF0.7891216862113785
aF0.8237069099072085
aF0.796895837614814
aF0.8144205142307465
aF0.8447266421973799
aF0.8613118128630587
aF0.8659962074309262
aF0.8404303940166689
aF0.8555521927576204
aF0.8633654136815572
aF0.8900884708411739
aF0.9216713991661765
aF0.8909067223806773
aF0.9324207085291439
aF0.9116486846585015
aF0.9233081990823819
aF0.910154909904085
aF0.9073047143524008
aF0.8673200759080919
aF0.8493883428521877
aF0.8569104438063788
aF0.859459001181471
aF0.8589331258810898
aF0.8630904894631097
aF0.9163351083073711
aF0.8652126622008641
aF0.8286219159706637
aF0.8332050615263181
aF0.8209472972995351
aF0.8587601423399112
aF0.8354800680820669
aF0.8251620650533961
aF0.796607390386035
aF0.8116731640463344
aF0.8030249775115105
aF0.7970678839048682
aF0.8192684631065719
aF0.8047688723227838
aF0.7785928405802282
aF0.753566791759869
aF0.770987720971392
aF0.7504422363048526
aF0.784533692023742
aF0.7799808007194725
aF0.7749852788273559
aF0.7938310342248197
aF0.7780695500776105
aF0.7690284143130418
aF0.7694233023279353
aF0.7696537708659692
aF0.7892798283490725
aF0.7653323300188223
aF0.7701798581930892
aF0.7564928471640832
aF0.781457822206526
aF0.7686924264463258
aF0.7769329033414057
aF0.7567702421785214
aF0.7387751760028415
aF0.781013794036285
aF0.7942568630029775
aF0.7923892098024561
aF0.765814366906556
aF0.7775330805140093
aF0.7768744655720762
aF0.7788429108315579
aF0.7672085147061302
aF0.7741423543495817
aF0.7678035907794566
aF0.7750406750814851
aF0.7615912049876096
aF0.7784093085291782
aF0.7737655514703883
aF0.7673939450591909
aF0.7695309985064694
aF0.7565124199074077
aF0.7884838303893086
aF0.7582620539378486
aF0.7575422767189248
aF0.7400698736898758
aF0.7541457598963769
aF0.7654544710033728
asba(iparams
Statistics
p26
(dp27
g8
(lp28
I0
aI1
aI0
aI0
aI2
aI0
aI3
aI4
aI2
aI6
aI2
aI6
aI6
aI11
aI10
aI13
aI18
aI18
aI19
aI34
aI28
aI41
aI42
aI56
aI44
aI51
aI55
aI59
aI74
aI72
aI83
aI92
aI87
aI96
aI100
aI82
aI81
aI88
aI81
aI76
aI68
aI61
aI74
aI62
aI60
aI62
aI50
aI50
aI49
aI62
aI53
aI36
aI45
aI35
aI37
aI30
aI31
aI28
aI23
aI14
aI22
aI13
aI16
aI15
aI14
aI24
aI18
aI18
aI21
aI17
aI16
aI19
aI16
aI19
aI18
aI18
aI19
aI12
aI21
aI19
aI17
aI18
aI16
aI25
aI10
aI22
aI22
aI18
aI22
aI16
aI19
aI16
aI16
aI22
aI13
aI13
aI17
aI18
aI11
aI10
asg10
(lp29
I39
aI78
aI120
aI153
aI180
aI220
aI248
aI284
aI312
aI319
aI344
aI368
aI384
aI416
aI430
aI465
aI502
aI501
aI539
aI542
aI556
aI575
aI589
aI596
aI628
aI656
aI669
aI677
aI689
aI710
aI735
aI760
aI772
aI799
aI810
aI838
aI853
aI829
aI844
aI825
aI844
aI839
aI847
aI844
aI839
aI831
aI821
aI843
aI846
aI845
aI840
aI828
aI831
aI791
aI803
aI794
aI794
aI769
aI781
aI779
aI802
aI777
aI806
aI752
aI801
aI780
aI777
aI776
aI763
aI747
aI778
aI757
aI747
aI762
aI757
aI779
aI769
aI759
aI757
aI746
aI791
aI737
aI747
aI752
aI753
aI776
aI767
aI768
aI757
aI752
aI746
aI783
aI770
aI769
aI736
aI758
aI779
aI746
aI769
aI777
asg12
(lp30
I39
aI78
aI120
aI153
aI180
aI220
aI248
aI284
aI312
aI319
aI344
aI368
aI384
aI416
aI430
aI465
aI502
aI501
aI539
aI542
aI556
aI575
aI589
aI596
aI628
aI656
aI669
aI677
aI689
aI710
aI735
aI760
aI772
aI799
aI810
aI838
aI853
aI829
aI844
aI825
aI844
aI839
aI847
aI844
aI839
aI831
aI821
aI843
aI846
aI845
aI840
aI828
aI831
aI791
aI803
aI794
aI794
aI769
aI781
aI779
aI802
aI777
aI806
aI752
aI801
aI780
aI777
aI776
aI763
aI747
aI778
aI757
aI747
aI762
aI757
aI779
aI769
aI759
aI757
aI746
aI791
aI737
aI747
aI752
aI753
aI776
aI767
aI768
aI757
aI752
aI746
aI783
aI770
aI769
aI736
aI758
aI779
aI746
aI769
aI777
asg4
(lp31
F0.007178068161010742
aF0.029907941818237305
aF0.07286906242370605
aF0.13295388221740723
aF0.2046051025390625
aF0.29011106491088867
aF0.39375901222229004
aF0.5339508056640625
aF0.6697449684143066
aF0.7330610752105713
aF0.8372659683227539
aF1.1414330005645752
aF1.1570048332214355
aF1.3249738216400146
aF1.4204108715057373
aF1.7110860347747803
aF1.930030107498169
aF2.079773187637329
aF2.536651849746704
aF3.6404550075531006
aF3.4637417793273926
aF4.289622068405151
aF3.939185857772827
aF4.437266111373901
aF4.752507925033569
aF5.328357934951782
aF6.162078142166138
aF6.439276933670044
aF7.423038959503174
aF8.433357954025269
aF9.39308786392212
aF11.709733009338379
aF14.693635940551758
aF13.96304202079773
aF14.08048391342163
aF19.136889219284058
aF20.194374084472656
aF20.93993616104126
aF18.079544067382812
aF17.261168003082275
aF17.770116090774536
aF17.624032020568848
aF21.356148958206177
aF18.211410999298096
aF18.857494831085205
aF19.656254053115845
aF20.83056092262268
aF22.195903062820435
aF21.701326847076416
aF17.561480045318604
aF17.46798300743103
aF16.853597164154053
aF16.435897827148438
aF16.14237093925476
aF15.81758713722229
aF15.655393838882446
aF15.483680009841919
aF15.154965877532959
aF15.353212118148804
aF18.394325017929077
aF19.40380597114563
aF19.1716570854187
aF21.052172899246216
aF20.501096963882446
aF21.084566116333008
aF21.11026692390442
aF20.678187131881714
aF20.101426124572754
aF20.035836935043335
aF18.446742057800293
aF20.238095998764038
aF18.907886028289795
aF19.520056009292603
aF15.49845814704895
aF15.825355052947998
aF18.717709064483643
aF17.167747020721436
aF19.178669929504395
aF17.497277975082397
aF19.64068102836609
aF15.680024862289429
aF17.399739980697632
aF16.731546878814697
aF15.134583950042725
aF14.398977041244507
aF15.07923698425293
aF15.552019119262695
aF14.65646505355835
aF14.323940992355347
aF14.98670506477356
aF14.330507040023804
aF14.276615858078003
aF14.428011894226074
aF14.722225904464722
aF14.135635137557983
aF15.091831922531128
aF15.04748797416687
aF15.099056005477905
aF14.763338804244995
aF15.388735055923462
asg15
g1
sg16
(lp32
I49
aI104
aI183
aI232
aI309
aI369
aI437
aI494
aI553
aI575
aI626
aI666
aI713
aI760
aI798
aI846
aI902
aI938
aI968
aI993
aI1025
aI1060
aI1122
aI1119
aI1170
aI1213
aI1221
aI1257
aI1305
aI1355
aI1391
aI1450
aI1516
aI1555
aI1600
aI1610
aI1607
aI1581
aI1613
aI1612
aI1597
aI1603
aI1605
aI1579
aI1534
aI1540
aI1526
aI1561
aI1606
aI1564
aI1556
aI1528
aI1472
aI1444
aI1426
aI1409
aI1361
aI1344
aI1367
aI1366
aI1404
aI1372
aI1374
aI1363
aI1413
aI1397
aI1365
aI1337
aI1327
aI1350
aI1354
aI1333
aI1344
aI1338
aI1389
aI1371
aI1349
aI1323
aI1321
aI1293
aI1308
aI1268
aI1314
aI1310
aI1327
aI1338
aI1352
aI1337
aI1312
aI1305
aI1309
aI1290
aI1297
aI1287
aI1289
aI1318
aI1347
aI1346
aI1379
aI1391
asg18
(lp33
I54
aI145
aI230
aI349
aI454
aI583
aI697
aI848
aI958
aI1101
aI1225
aI1360
aI1501
aI1641
aI1773
aI1931
aI2064
aI2201
aI2302
aI2388
aI2505
aI2581
aI2687
aI2773
aI2824
aI2933
aI2992
aI3031
aI3092
aI3134
aI3164
aI3133
aI3103
aI3057
aI2971
aI2919
aI2824
aI2716
aI2576
aI2454
aI2327
aI2266
aI2196
aI2095
aI2012
aI1954
aI1881
aI1849
aI1818
aI1739
aI1699
aI1643
aI1558
aI1518
aI1500
aI1483
aI1448
aI1432
aI1447
aI1449
aI1474
aI1443
aI1439
aI1420
aI1471
aI1461
aI1433
aI1403
aI1398
aI1406
aI1405
aI1378
aI1390
aI1374
aI1431
aI1420
aI1385
aI1360
aI1365
aI1342
aI1364
aI1331
aI1365
aI1353
aI1359
aI1363
aI1376
aI1360
aI1346
aI1333
aI1344
aI1321
aI1334
aI1330
aI1326
aI1359
aI1395
aI1380
aI1415
aI1442
asg20
(lp34
sg22
(lp35
I0
aI0
aI0
aI1
aI0
aI2
aI2
aI10
aI10
aI7
aI5
aI14
aI18
aI22
aI28
aI39
aI34
aI37
aI43
aI49
aI49
aI45
aI74
aI62
aI80
aI69
aI100
aI78
aI90
aI108
aI124
aI128
aI142
aI172
aI164
aI185
aI190
aI207
aI231
aI225
aI209
aI216
aI229
aI224
aI222
aI226
aI210
aI218
aI210
aI220
aI216
aI216
aI208
aI206
aI196
aI201
aI197
aI215
aI179
aI202
aI191
aI213
aI196
aI205
aI190
aI198
aI204
aI184
aI207
aI216
aI194
aI192
aI231
aI173
aI212
aI202
aI196
aI193
aI191
aI208
aI188
aI211
aI190
aI209
aI204
aI190
aI207
aI188
aI169
aI210
aI213
aI204
aI185
aI195
aI198
aI205
aI177
aI160
aI175
aI197
asg24
(lp36
F0.522547812484926
aF0.3601930002273991
aF0.5515882110543762
aF0.7209109927228083
aF0.5830006509600163
aF0.6269701497642383
aF0.684660211008141
aF0.6556148846857022
aF0.7247403854767489
aF0.6938121834980495
aF0.7250345056030223
aF0.7107968638631538
aF0.6950774881304324
aF0.6897580881896932
aF0.7655224464541306
aF0.8016943901656695
aF0.7728498979090378
aF0.8281406120840844
aF0.8034704258386098
aF0.8219540555201339
aF0.8493203227259659
aF0.8078372349648899
aF0.8428600340653665
aF0.8003621744172857
aF0.843143857294716
aF0.834962749326501
aF0.8628737039282175
aF0.8876384923764977
aF0.9055306433613983
aF0.9048036185941251
aF0.9085867239989291
aF0.919506391886736
aF0.9273137061322636
aF0.8863800847538909
aF0.8898469321601502
aF0.8917481494119408
aF0.8882797241221186
aF0.9163382140746581
aF0.8985777099617849
aF0.8880953409396389
aF0.8587252012721527
aF0.8484345686098931
aF0.8558418802374819
aF0.8480665774246682
aF0.8033079448890329
aF0.8492049760830013
aF0.8662004588632101
aF0.8492955305130845
aF0.8115234789702409
aF0.8035702968439266
aF0.786642730448814
aF0.8048304089467508
aF0.791846969957169
aF0.7720254855841018
aF0.7840149560085015
aF0.7795116964982695
aF0.7590577273653546
aF0.7705491532436981
aF0.7789322339450788
aF0.791978050539933
aF0.7709121498859774
aF0.7688523912248809
aF0.7722266393609433
aF0.7934611491992075
aF0.7767618936420944
aF0.7436511662842309
aF0.7587129489069919
aF0.7778594048268911
aF0.7694663908538045
aF0.7706804557655601
aF0.7888265102741513
aF0.7474916907395258
aF0.7676726074773069
aF0.7649826077572167
aF0.7704016157358978
aF0.7595973945193377
aF0.780579271550892
aF0.7828088316888294
aF0.7739620171421747
aF0.7618204279313288
aF0.7673566102936554
aF0.7856955743138258
aF0.7793204040744287
aF0.7671779377541028
aF0.7628002839488691
aF0.7638231381099848
aF0.7824125000394282
aF0.751691077667303
aF0.7839262424661867
aF0.7813035388565277
aF0.7828742165508086
aF0.7683145805639486
aF0.7716356991033794
aF0.7564508750636573
aF0.7660473224822775
aF0.7636469839937288
aF0.7844892800429544
aF0.7482455017641424
aF0.7790054898759439
aF0.7749547128423867
asba(iparams
Statistics
p37
(dp38
g8
(lp39
I0
aI1
aI1
aI4
aI5
aI7
aI7
aI8
aI5
aI5
aI7
aI6
aI18
aI16
aI20
aI23
aI21
aI27
aI22
aI51
aI27
aI39
aI42
aI61
aI54
aI57
aI67
aI76
aI68
aI92
aI93
aI96
aI84
aI82
aI97
aI96
aI91
aI77
aI73
aI74
aI70
aI69
aI73
aI72
aI61
aI39
aI50
aI46
aI57
aI49
aI36
aI36
aI34
aI45
aI32
aI34
aI29
aI24
aI24
aI20
aI27
aI16
aI18
aI21
aI18
aI30
aI17
aI20
aI29
aI18
aI32
aI18
aI19
aI26
aI14
aI16
aI26
aI21
aI17
aI23
aI20
aI20
aI17
aI21
aI17
aI31
aI19
aI27
aI20
aI25
aI23
aI19
aI17
aI23
aI17
aI15
aI16
aI21
aI17
aI19
asg10
(lp40
I40
aI74
aI116
aI159
aI174
aI205
aI225
aI256
aI275
aI302
aI328
aI356
aI368
aI395
aI419
aI455
aI457
aI489
aI504
aI513
aI506
aI536
aI564
aI581
aI598
aI655
aI676
aI698
aI705
aI727
aI751
aI796
aI796
aI815
aI823
aI842
aI849
aI827
aI841
aI858
aI846
aI869
aI857
aI821
aI831
aI840
aI853
aI868
aI844
aI836
aI826
aI859
aI847
aI817
aI822
aI821
aI817
aI812
aI802
aI786
aI781
aI816
aI789
aI811
aI776
aI814
aI784
aI768
aI780
aI794
aI789
aI778
aI768
aI791
aI763
aI778
aI749
aI769
aI769
aI766
aI765
aI759
aI793
aI788
aI796
aI801
aI787
aI781
aI765
aI770
aI758
aI767
aI767
aI768
aI779
aI784
aI801
aI796
aI797
aI773
asg12
(lp41
I40
aI74
aI116
aI159
aI174
aI205
aI225
aI256
aI275
aI302
aI328
aI356
aI368
aI395
aI419
aI455
aI457
aI489
aI504
aI513
aI506
aI536
aI564
aI581
aI598
aI655
aI676
aI698
aI705
aI727
aI751
aI796
aI796
aI815
aI823
aI842
aI849
aI827
aI841
aI858
aI846
aI869
aI857
aI821
aI831
aI840
aI853
aI868
aI844
aI836
aI826
aI859
aI847
aI817
aI822
aI821
aI817
aI812
aI802
aI786
aI781
aI816
aI789
aI811
aI776
aI814
aI784
aI768
aI780
aI794
aI789
aI778
aI768
aI791
aI763
aI778
aI749
aI769
aI769
aI766
aI765
aI759
aI793
aI788
aI796
aI801
aI787
aI781
aI765
aI770
aI758
aI767
aI767
aI768
aI779
aI784
aI801
aI796
aI797
aI773
asg4
(lp42
F0.013260841369628906
aF0.03725004196166992
aF0.07497477531433105
aF0.13806986808776855
aF0.20264887809753418
aF0.27733397483825684
aF0.3525199890136719
aF0.46678686141967773
aF0.5572109222412109
aF0.731503963470459
aF0.8002479076385498
aF0.9411160945892334
aF1.0483191013336182
aF1.2274971008300781
aF1.4435060024261475
aF1.6232640743255615
aF1.8010869026184082
aF2.0373518466949463
aF2.274696111679077
aF2.637465000152588
aF2.886712074279785
aF3.309321880340576
aF3.737730026245117
aF4.168356895446777
aF4.615912914276123
aF5.209681987762451
aF5.910451889038086
aF6.765904903411865
aF7.518611907958984
aF8.554617881774902
aF9.854079961776733
aF10.666485071182251
aF11.542677879333496
aF12.291012048721313
aF13.466458082199097
aF15.090310096740723
aF17.248981952667236
aF21.448970794677734
aF19.974285125732422
aF17.30313205718994
aF17.585698127746582
aF18.12574791908264
aF17.71600890159607
aF21.365296840667725
aF18.210928916931152
aF17.27597188949585
aF17.035363912582397
aF17.714436054229736
aF17.901003122329712
aF17.32353687286377
aF17.368957996368408
aF17.7973690032959
aF17.264485120773315
aF17.06302499771118
aF17.258460998535156
aF17.708399057388306
aF17.224905967712402
aF16.861260890960693
aF16.772248029708862
aF16.58557891845703
aF16.62791395187378
aF17.062439918518066
aF16.581483840942383
aF17.135703086853027
aF16.64591383934021
aF16.872213125228882
aF16.297693967819214
aF15.183918952941895
aF15.437618970870972
aF15.68229603767395
aF15.621940851211548
aF15.62034296989441
aF15.737310886383057
aF15.539793014526367
aF15.272590160369873
aF15.31675410270691
aF15.50086498260498
aF15.224832773208618
aF15.595105171203613
aF15.7621431350708
aF15.757871150970459
aF15.436556100845337
aF15.640132904052734
aF15.807591915130615
aF15.628240823745728
aF15.796759128570557
aF15.557731866836548
aF16.589164972305298
aF15.558828115463257
aF15.461198091506958
aF15.463050127029419
aF15.625536918640137
aF15.238814115524292
aF15.236962080001831
aF15.452607154846191
aF16.159558057785034
aF16.412837982177734
aF16.29488205909729
aF17.145977020263672
aF15.84256100654602
asg15
g1
sg16
(lp43
I63
aI124
aI192
aI260
aI315
aI367
aI426
aI480
aI538
aI583
aI649
aI700
aI715
aI772
aI806
aI843
aI867
aI918
aI934
aI957
aI980
aI1023
aI1041
aI1079
aI1134
aI1226
aI1280
aI1287
aI1327
aI1400
aI1487
aI1546
aI1575
aI1556
aI1577
aI1612
aI1646
aI1637
aI1614
aI1617
aI1610
aI1634
aI1631
aI1581
aI1579
aI1543
aI1583
aI1583
aI1564
aI1554
aI1547
aI1541
aI1518
aI1496
aI1502
aI1459
aI1438
aI1410
aI1394
aI1384
aI1410
aI1440
aI1408
aI1423
aI1415
aI1403
aI1371
aI1344
aI1350
aI1396
aI1393
aI1385
aI1370
aI1377
aI1346
aI1340
aI1320
aI1326
aI1335
aI1352
aI1360
aI1363
aI1399
aI1388
aI1400
aI1403
aI1394
aI1401
aI1361
aI1350
aI1336
aI1339
aI1352
aI1381
aI1369
aI1394
aI1446
aI1437
aI1473
aI1420
asg18
(lp44
I72
aI174
aI273
aI392
aI502
aI625
aI753
aI891
aI1016
aI1162
aI1301
aI1465
aI1582
aI1720
aI1851
aI1990
aI2095
aI2197
aI2312
aI2419
aI2529
aI2638
aI2759
aI2816
aI2900
aI2993
aI3042
aI3075
aI3085
aI3104
aI3116
aI3101
aI3029
aI2966
aI2900
aI2806
aI2754
aI2607
aI2516
aI2403
aI2305
aI2256
aI2181
aI2070
aI2025
aI1964
aI1940
aI1878
aI1786
aI1744
aI1684
aI1656
aI1619
aI1600
aI1598
aI1568
aI1548
aI1521
aI1490
aI1491
aI1493
aI1515
aI1483
aI1498
aI1490
aI1485
aI1457
aI1440
aI1460
aI1489
aI1492
aI1477
aI1471
aI1481
aI1434
aI1448
aI1438
aI1434
aI1436
aI1438
aI1448
aI1440
aI1476
aI1460
aI1469
aI1473
aI1462
aI1477
aI1453
aI1445
aI1430
aI1439
aI1461
aI1468
aI1460
aI1471
aI1526
aI1507
aI1544
aI1499
asg20
(lp45
sg22
(lp46
I0
aI0
aI0
aI2
aI3
aI4
aI5
aI4
aI10
aI16
aI5
aI17
aI12
aI23
aI29
aI29
aI27
aI38
aI40
aI42
aI49
aI42
aI67
aI57
aI75
aI72
aI71
aI101
aI108
aI119
aI112
aI120
aI157
aI148
aI187
aI176
aI169
aI191
aI227
aI219
aI216
aI217
aI224
aI212
aI203
aI227
aI219
aI218
aI200
aI212
aI211
aI208
aI194
aI199
aI218
aI218
aI211
aI180
aI206
aI186
aI185
aI191
aI211
aI211
aI201
aI202
aI208
aI174
aI187
aI194
aI174
aI193
aI202
aI205
aI200
aI191
aI211
aI195
aI187
aI180
aI200
aI197
aI168
aI181
aI186
aI193
aI199
aI212
aI209
aI196
aI194
aI174
aI182
aI170
aI203
aI209
aI164
aI198
aI193
aI181
asg24
(lp47
F0.5492003224939529
aF0.4955343303529271
aF0.5867085785244973
aF0.6353585750770321
aF0.6330859273400122
aF0.7254069703266252
aF0.738462496939295
aF0.729298038161786
aF0.7118768268549533
aF0.7202344452730267
aF0.7056364863890532
aF0.7493771941214312
aF0.7780684481731217
aF0.7768486026962965
aF0.7720325649622016
aF0.7802940648709007
aF0.8300391614922007
aF0.8266058434717263
aF0.8074842485592311
aF0.799621489748141
aF0.8220343844837523
aF0.8580014841139652
aF0.8427423574460476
aF0.8210647351566994
aF0.8741335150133185
aF0.8227645346916936
aF0.8721644528336716
aF0.8823974699471545
aF0.9294140452597045
aF0.9443252028433021
aF0.9131325506688066
aF0.8813828670360707
aF0.8809974732571801
aF0.8770095089551467
aF0.8969589394925507
aF0.8789718698712701
aF0.8680329799764505
aF0.8446440299135632
aF0.9243137982482768
aF0.8655688391157432
aF0.8567688367663522
aF0.8619878455529912
aF0.8298041410556781
aF0.8530444024941974
aF0.8215016148952717
aF0.8640544656454469
aF0.8147351935861737
aF0.8151179616995173
aF0.8153937113679214
aF0.8265091881201971
aF0.7930558488469114
aF0.7705804521986022
aF0.7700808766860521
aF0.7720573765557776
aF0.7588646277359277
aF0.7839217268025889
aF0.7768438131258818
aF0.766721886033612
aF0.7630895993019424
aF0.7674096965643816
aF0.7771862354405534
aF0.7451348414668294
aF0.803233157882737
aF0.7598577659837898
aF0.7769427684055765
aF0.7593506329373116
aF0.7801881214727315
aF0.7633803189106955
aF0.7888352042117251
aF0.7675174125749724
aF0.7523413830794308
aF0.7652502181393952
aF0.7394948490549216
aF0.7719615575792114
aF0.7503353000204721
aF0.764390101618765
aF0.7578070210249056
aF0.7643241672313653
aF0.7647472032526269
aF0.7560192345610321
aF0.7930709469132188
aF0.7632771135870672
aF0.7688306815243527
aF0.7563774270603079
aF0.7633147300598767
aF0.7720250466277637
aF0.7585304083045351
aF0.7678799986648871
aF0.7514781696536086
aF0.7592391097212475
aF0.7562242566791004
aF0.7631548261794834
aF0.764299782025771
aF0.7806617844665501
aF0.760519155926939
aF0.7505487772104346
aF0.768508711060927
aF0.7422705356937964
aF0.7709783496766549
aF0.7523097332610742
asba(iparams
Statistics
p48
(dp49
g8
(lp50
I0
aI3
aI1
aI3
aI5
aI5
aI5
aI11
aI15
aI11
aI13
aI19
aI18
aI17
aI23
aI16
aI39
aI46
aI26
aI58
aI39
aI62
aI51
aI61
aI51
aI65
aI70
aI73
aI79
aI76
aI94
aI101
aI91
aI85
aI109
aI93
aI96
aI77
aI72
aI74
aI68
aI55
aI57
aI49
aI53
aI42
aI43
aI44
aI49
aI41
aI52
aI37
aI28
aI40
aI26
aI34
aI19
aI19
aI24
aI21
aI34
aI26
aI37
aI26
aI22
aI18
aI24
aI21
aI27
aI25
aI30
aI23
aI16
aI29
aI26
aI37
aI30
aI25
aI24
aI19
aI14
aI27
aI19
aI20
aI31
aI26
aI22
aI22
aI20
aI20
aI21
aI17
aI21
aI21
aI29
aI27
aI18
aI27
aI31
aI20
asg10
(lp51
I40
aI71
aI109
aI142
aI167
aI189
aI220
aI248
aI263
aI296
aI308
aI344
aI349
aI378
aI383
aI411
aI415
aI443
aI481
aI516
aI521
aI552
aI554
aI587
aI618
aI648
aI676
aI694
aI693
aI723
aI734
aI735
aI792
aI811
aI807
aI830
aI826
aI871
aI873
aI868
aI869
aI864
aI871
aI875
aI858
aI847
aI855
aI844
aI853
aI827
aI865
aI824
aI823
aI824
aI827
aI821
aI804
aI821
aI825
aI837
aI827
aI816
aI824
aI820
aI806
aI826
aI826
aI837
aI823
aI811
aI819
aI801
aI821
aI823
aI803
aI781
aI800
aI793
aI765
aI767
aI770
aI778
aI779
aI775
aI796
aI784
aI789
aI772
aI795
aI801
aI785
aI772
aI771
aI768
aI807
aI780
aI772
aI775
aI795
aI793
asg12
(lp52
I40
aI71
aI109
aI142
aI167
aI189
aI220
aI248
aI263
aI296
aI308
aI344
aI349
aI378
aI383
aI411
aI415
aI443
aI481
aI516
aI521
aI552
aI554
aI587
aI618
aI648
aI676
aI694
aI693
aI723
aI734
aI735
aI792
aI811
aI807
aI830
aI826
aI871
aI873
aI868
aI869
aI864
aI871
aI875
aI858
aI847
aI855
aI844
aI853
aI827
aI865
aI824
aI823
aI824
aI827
aI821
aI804
aI821
aI825
aI837
aI827
aI816
aI824
aI820
aI806
aI826
aI826
aI837
aI823
aI811
aI819
aI801
aI821
aI823
aI803
aI781
aI800
aI793
aI765
aI767
aI770
aI778
aI779
aI775
aI796
aI784
aI789
aI772
aI795
aI801
aI785
aI772
aI771
aI768
aI807
aI780
aI772
aI775
aI795
aI793
asg4
(lp53
F0.014506101608276367
aF0.035310983657836914
aF0.07792401313781738
aF0.1372661590576172
aF0.2047269344329834
aF0.33658599853515625
aF0.34581995010375977
aF0.42709994316101074
aF0.5369479656219482
aF0.650036096572876
aF0.711724042892456
aF0.8618960380554199
aF1.0023717880249023
aF1.1803359985351562
aF1.3738582134246826
aF1.4258339405059814
aF1.6852710247039795
aF1.9583580493927002
aF2.193556070327759
aF2.6381051540374756
aF3.015836000442505
aF3.401703119277954
aF3.8937389850616455
aF4.383641958236694
aF4.852157115936279
aF5.6909871101379395
aF6.315247058868408
aF6.989374160766602
aF7.643460988998413
aF8.512109994888306
aF9.575782060623169
aF10.574788093566895
aF12.081679821014404
aF12.659325122833252
aF13.491089105606079
aF15.54781699180603
aF15.56336784362793
aF16.2309410572052
aF16.264172077178955
aF16.20407009124756
aF16.363779067993164
aF17.147459983825684
aF16.694425106048584
aF17.03661584854126
aF16.859411001205444
aF17.370028972625732
aF16.562594890594482
aF16.974752187728882
aF16.8559730052948
aF16.196274042129517
aF16.294193029403687
aF15.912846088409424
aF19.332752227783203
aF20.547088861465454
aF21.963826179504395
aF21.030606031417847
aF21.26879596710205
aF16.14814591407776
aF16.301897048950195
aF16.435276985168457
aF17.010035037994385
aF20.2986319065094
aF21.692950010299683
aF21.06760811805725
aF21.235322952270508
aF21.169888019561768
aF18.512639045715332
aF21.6515691280365
aF21.88852286338806
aF21.707611083984375
aF18.128094911575317
aF16.51640295982361
aF16.266046047210693
aF15.807929039001465
aF15.10825490951538
aF15.787330865859985
aF15.067137002944946
aF15.152041912078857
aF15.182080030441284
aF15.145071029663086
aF14.874191999435425
aF15.059782981872559
aF15.536267042160034
aF15.333117008209229
aF15.077450037002563
aF14.772608995437622
aF14.94739580154419
aF15.094959020614624
aF14.891503810882568
aF15.243513822555542
aF15.525797128677368
aF14.84836196899414
aF15.043339967727661
aF14.826372146606445
aF15.764003992080688
aF14.551523923873901
aF14.656460046768188
aF14.624813079833984
aF15.493077993392944
aF17.19606304168701
asg15
g1
sg16
(lp54
I72
aI128
aI210
aI274
aI338
aI387
aI455
aI485
aI539
aI579
aI608
aI655
aI705
aI738
aI758
aI801
aI818
aI861
aI910
aI957
aI1009
aI1042
aI1071
aI1124
aI1157
aI1191
aI1239
aI1299
aI1350
aI1382
aI1390
aI1472
aI1543
aI1529
aI1561
aI1598
aI1613
aI1664
aI1646
aI1673
aI1618
aI1628
aI1646
aI1586
aI1610
aI1597
aI1598
aI1600
aI1567
aI1520
aI1516
aI1498
aI1476
aI1506
aI1497
aI1483
aI1459
aI1443
aI1494
aI1499
aI1497
aI1487
aI1482
aI1455
aI1473
aI1522
aI1531
aI1561
aI1505
aI1482
aI1525
aI1485
aI1455
aI1437
aI1408
aI1404
aI1381
aI1421
aI1363
aI1368
aI1355
aI1371
aI1396
aI1379
aI1378
aI1335
aI1368
aI1364
aI1396
aI1416
aI1407
aI1386
aI1409
aI1380
aI1423
aI1360
aI1366
aI1349
aI1376
aI1370
asg18
(lp55
I91
aI192
aI298
aI438
aI551
aI693
aI804
aI968
aI1079
aI1229
aI1362
aI1503
aI1627
aI1772
aI1864
aI2017
aI2147
aI2248
aI2355
aI2461
aI2511
aI2609
aI2673
aI2761
aI2820
aI2879
aI2934
aI2961
aI3023
aI3024
aI3021
aI2987
aI2933
aI2880
aI2803
aI2724
aI2623
aI2568
aI2448
aI2364
aI2231
aI2204
aI2152
aI2076
aI2012
aI1958
aI1912
aI1881
aI1839
aI1780
aI1752
aI1714
aI1692
aI1699
aI1657
aI1658
aI1664
aI1647
aI1674
aI1674
aI1665
aI1643
aI1638
aI1601
aI1610
aI1646
aI1656
aI1663
aI1625
aI1614
aI1648
aI1601
aI1575
aI1572
aI1546
aI1529
aI1495
aI1537
aI1486
aI1509
aI1497
aI1528
aI1563
aI1542
aI1550
aI1508
aI1531
aI1533
aI1563
aI1546
aI1521
aI1504
aI1520
aI1478
aI1520
aI1448
aI1461
aI1467
aI1501
aI1490
asg20
(lp56
sg22
(lp57
I0
aI0
aI3
aI1
aI3
aI7
aI8
aI9
aI12
aI13
aI11
aI20
aI24
aI31
aI34
aI17
aI29
aI34
aI47
aI47
aI62
aI53
aI64
aI57
aI85
aI69
aI91
aI100
aI91
aI121
aI127
aI134
aI132
aI162
aI171
aI162
aI176
aI197
aI184
aI207
aI226
aI216
aI214
aI244
aI193
aI207
aI217
aI205
aI203
aI202
aI214
aI193
aI195
aI208
aI182
aI193
aI185
aI198
aI200
aI185
aI203
aI194
aI191
aI183
aI205
aI205
aI180
aI197
aI189
aI194
aI204
aI198
aI215
aI211
aI195
aI182
aI180
aI191
aI182
aI182
aI191
aI173
aI184
aI198
aI193
aI184
aI207
aI187
aI184
aI198
aI182
aI206
aI207
aI203
aI194
aI201
aI199
aI174
aI178
aI204
asg24
(lp58
F0.7598963719430263
aF0.6234822533697207
aF0.6081267884484048
aF0.698656229773156
aF0.7140299867880477
aF0.7110467715767377
aF0.7286635557401497
aF0.7445590588724861
aF0.7619378003582603
aF0.7815001198457278
aF0.8043335369280027
aF0.7798399780004145
aF0.7816135201046666
aF0.7879140414265401
aF0.8804410280231549
aF0.8058185755732421
aF0.8223644505460723
aF0.8459479678209773
aF0.8356792291433528
aF0.8298909062121766
aF0.8091423878892506
aF0.800721327054829
aF0.8193018568627489
aF0.863790629820071
aF0.8399449151105128
aF0.8564196137371834
aF0.8737428031212613
aF0.906165455507221
aF0.8482872259276489
aF0.8513414298793153
aF0.9384390560388214
aF0.9150125235151892
aF0.859812269429044
aF0.9007908206530056
aF0.9169398081220983
aF0.8490756326029792
aF0.8776648522586031
aF0.8422084726554385
aF0.8596524318032804
aF0.8356360673076176
aF0.8205410958671175
aF0.8237727811122142
aF0.801859332531324
aF0.8380289685568482
aF0.8124734346545778
aF0.8015136426935889
aF0.8081906171861702
aF0.783022410272944
aF0.7818142446171538
aF0.7665086610944147
aF0.767593232597995
aF0.781256860171744
aF0.7557767137552759
aF0.776656322159988
aF0.7579850250238356
aF0.7439402908272279
aF0.7528830237418198
aF0.767817465541896
aF0.7749804213595318
aF0.7570910685807042
aF0.7457967553676758
aF0.728589004642444
aF0.7723769422041865
aF0.7480634762488523
aF0.7814198883274744
aF0.7477087533422394
aF0.763505345291733
aF0.7458499183008982
aF0.7547772515717407
aF0.7718541911124702
aF0.7653931463144129
aF0.7402412450709203
aF0.7353605218562386
aF0.7383147986388451
aF0.7410109214873215
aF0.7611765730096862
aF0.7676626283257274
aF0.7666030955488393
aF0.7796062299648963
aF0.79013051334493
aF0.7513650973589762
aF0.7519909911714936
aF0.7516066318942741
aF0.7508576473546043
aF0.7374764064882394
aF0.7585272776135517
aF0.7658665206111113
aF0.7736125755932318
aF0.7794969351242992
aF0.758380570376798
aF0.7483075524181126
aF0.7504927780013528
aF0.7361157018513504
aF0.7376183373645143
aF0.7479735863998473
aF0.7380758246680387
aF0.7442963491066746
aF0.7458270412913693
aF0.7477022386962403
aF0.75333960653434
asba(iparams
Statistics
p59
(dp60
g8
(lp61
I0
aI1
aI2
aI5
aI6
aI8
aI8
aI7
aI10
aI18
aI20
aI10
aI36
aI31
aI28
aI41
aI33
aI39
aI41
aI47
aI49
aI50
aI41
aI53
aI68
aI78
aI83
aI66
aI69
aI86
aI91
aI90
aI103
aI82
aI84
aI101
aI88
aI74
aI71
aI59
aI72
aI68
aI76
aI75
aI54
aI48
aI46
aI47
aI41
aI56
aI26
aI32
aI32
aI34
aI32
aI23
aI34
aI22
aI30
aI25
aI26
aI28
aI27
aI28
aI36
aI28
aI25
aI21
aI23
aI24
aI20
aI18
aI23
aI28
aI20
aI31
aI19
aI23
aI28
aI18
aI25
aI31
aI21
aI23
aI21
aI28
aI22
aI26
aI28
aI23
aI28
aI24
aI27
aI19
aI29
aI24
aI25
aI26
aI23
aI24
asg10
(lp62
I41
aI69
aI99
aI135
aI148
aI183
aI205
aI223
aI242
aI288
aI300
aI331
aI348
aI368
aI380
aI407
aI445
aI440
aI472
aI489
aI510
aI537
aI534
aI583
aI593
aI644
aI680
aI708
aI687
aI711
aI720
aI780
aI741
aI780
aI818
aI849
aI855
aI858
aI876
aI856
aI885
aI885
aI881
aI877
aI866
aI856
aI850
aI862
aI869
aI868
aI837
aI864
aI814
aI820
aI851
aI847
aI804
aI810
aI821
aI792
aI788
aI794
aI804
aI793
aI789
aI797
aI779
aI795
aI837
aI822
aI792
aI790
aI759
aI800
aI793
aI790
aI796
aI774
aI768
aI784
aI769
aI798
aI794
aI796
aI801
aI778
aI805
aI811
aI804
aI815
aI799
aI793
aI809
aI816
aI773
aI802
aI812
aI804
aI802
aI805
asg12
(lp63
I41
aI69
aI99
aI135
aI148
aI183
aI205
aI223
aI242
aI288
aI300
aI331
aI348
aI368
aI380
aI407
aI445
aI440
aI472
aI489
aI510
aI537
aI534
aI583
aI593
aI644
aI680
aI708
aI687
aI711
aI720
aI780
aI741
aI780
aI818
aI849
aI855
aI858
aI876
aI856
aI885
aI885
aI881
aI877
aI866
aI856
aI850
aI862
aI869
aI868
aI837
aI864
aI814
aI820
aI851
aI847
aI804
aI810
aI821
aI792
aI788
aI794
aI804
aI793
aI789
aI797
aI779
aI795
aI837
aI822
aI792
aI790
aI759
aI800
aI793
aI790
aI796
aI774
aI768
aI784
aI769
aI798
aI794
aI796
aI801
aI778
aI805
aI811
aI804
aI815
aI799
aI793
aI809
aI816
aI773
aI802
aI812
aI804
aI802
aI805
asg4
(lp64
F0.013540029525756836
aF0.04619908332824707
aF0.09030008316040039
aF0.17069196701049805
aF0.22644400596618652
aF0.33268189430236816
aF0.30087900161743164
aF0.3555111885070801
aF0.4528849124908447
aF0.5742318630218506
aF0.6441171169281006
aF0.7743840217590332
aF0.9717898368835449
aF1.0855791568756104
aF1.2316639423370361
aF1.499648094177246
aF1.6984939575195312
aF1.8504128456115723
aF2.2539069652557373
aF2.6162590980529785
aF2.9488701820373535
aF3.285645008087158
aF3.639051914215088
aF4.171126127243042
aF4.829286098480225
aF5.327466011047363
aF6.124414920806885
aF6.707795143127441
aF7.555440902709961
aF8.22512412071228
aF9.15556812286377
aF10.178740978240967
aF10.947956085205078
aF11.815951824188232
aF12.825602054595947
aF13.965984106063843
aF14.469337940216064
aF14.922649145126343
aF15.379190921783447
aF16.195544958114624
aF16.52945113182068
aF16.48624610900879
aF16.891951084136963
aF16.976475954055786
aF17.33962893486023
aF16.95265483856201
aF16.615437030792236
aF16.373245000839233
aF16.1094069480896
aF16.522701025009155
aF15.690757989883423
aF15.895912885665894
aF20.235470056533813
aF21.760746002197266
aF21.87320303916931
aF22.154527187347412
aF21.407588005065918
aF21.356467962265015
aF21.1634042263031
aF21.043816089630127
aF20.93069100379944
aF21.215293169021606
aF21.089736938476562
aF21.026867866516113
aF20.57356905937195
aF20.831995010375977
aF20.569774866104126
aF20.962376832962036
aF21.255126953125
aF17.784807920455933
aF15.289019107818604
aF15.411839962005615
aF14.71372103691101
aF15.241348028182983
aF15.153706073760986
aF15.063954830169678
aF14.87030291557312
aF14.720921039581299
aF14.485191106796265
aF14.876716136932373
aF20.95427918434143
aF21.27788519859314
aF20.63557004928589
aF17.027230978012085
aF15.03069281578064
aF15.097885847091675
aF14.863064050674438
aF15.410257816314697
aF15.387834072113037
aF15.330700874328613
aF15.488197803497314
aF15.749943971633911
aF15.883075952529907
aF16.50640892982483
aF15.718019962310791
aF15.539789915084839
aF15.799479007720947
aF15.240320920944214
aF17.52051019668579
aF20.64893388748169
asg15
g1
sg16
(lp65
I83
aI147
aI216
aI285
aI339
aI399
aI433
aI463
aI518
aI560
aI608
aI655
aI702
aI720
aI751
aI787
aI823
aI823
aI864
aI904
aI951
aI1008
aI1021
aI1075
aI1112
aI1184
aI1248
aI1321
aI1305
aI1331
aI1380
aI1435
aI1416
aI1467
aI1565
aI1615
aI1665
aI1677
aI1650
aI1660
aI1660
aI1655
aI1670
aI1683
aI1670
aI1605
aI1580
aI1586
aI1557
aI1578
aI1507
aI1522
aI1467
aI1494
aI1486
aI1520
aI1468
aI1464
aI1463
aI1438
aI1413
aI1434
aI1422
aI1419
aI1397
aI1409
aI1391
aI1446
aI1450
aI1440
aI1434
aI1403
aI1384
aI1415
aI1416
aI1420
aI1433
aI1376
aI1361
aI1362
aI1410
aI1401
aI1384
aI1441
aI1416
aI1430
aI1425
aI1458
aI1467
aI1459
aI1448
aI1444
aI1458
aI1435
aI1394
aI1434
aI1428
aI1423
aI1437
aI1399
asg18
(lp66
I102
aI217
aI342
aI464
aI604
aI738
aI869
aI993
aI1158
aI1328
aI1468
aI1611
aI1748
aI1861
aI1958
aI2070
aI2165
aI2261
aI2395
aI2459
aI2542
aI2616
aI2706
aI2805
aI2854
aI2923
aI2954
aI2976
aI2971
aI2996
aI2990
aI2964
aI2920
aI2870
aI2839
aI2774
aI2720
aI2624
aI2506
aI2415
aI2370
aI2277
aI2229
aI2156
aI2048
aI1978
aI1951
aI1893
aI1859
aI1857
aI1782
aI1796
aI1751
aI1750
aI1735
aI1743
aI1714
aI1708
aI1702
aI1689
aI1686
aI1705
aI1699
aI1685
aI1649
aI1654
aI1649
aI1687
aI1672
aI1662
aI1662
aI1619
aI1615
aI1644
aI1658
aI1674
aI1684
aI1637
aI1642
aI1647
aI1691
aI1708
aI1683
aI1724
aI1699
aI1727
aI1725
aI1761
aI1796
aI1781
aI1750
aI1730
aI1734
aI1719
aI1711
aI1726
aI1706
aI1707
aI1730
aI1695
asg20
(lp67
sg22
(lp68
I0
aI0
aI1
aI1
aI3
aI8
aI5
aI8
aI14
aI16
aI13
aI28
aI17
aI26
aI33
aI36
aI24
aI31
aI39
aI55
aI50
aI52
aI80
aI65
aI69
aI67
aI99
aI83
aI115
aI121
aI108
aI121
aI145
aI149
aI143
aI159
aI172
aI200
aI214
aI242
aI220
aI204
aI220
aI208
aI218
aI207
aI205
aI198
aI203
aI222
aI204
aI183
aI186
aI198
aI200
aI190
aI183
aI185
aI185
aI212
aI212
aI193
aI192
aI193
aI183
aI192
aI192
aI181
aI184
aI164
aI203
aI215
aI195
aI175
aI182
aI195
aI184
aI186
aI210
aI194
aI188
aI181
aI163
aI165
aI193
aI185
aI150
aI186
aI186
aI191
aI182
aI199
aI178
aI185
aI199
aI194
aI185
aI179
aI203
aI182
asg24
(lp69
F0.6688623173681347
aF0.7054348020829676
aF0.6173011165131559
aF0.7128143888042834
aF0.7090206788352454
aF0.74602059790614
aF0.8187710148727412
aF0.7833017740782846
aF0.7768520059257171
aF0.8051339842933519
aF0.7987796255486894
aF0.8468962717523094
aF0.8455498861695219
aF0.8423765467440976
aF0.8730268433782683
aF0.8349962091773451
aF0.8241918102237836
aF0.8487066722044433
aF0.8200825912480253
aF0.8001262189012904
aF0.8379158796654914
aF0.8193667247696278
aF0.8151112050544198
aF0.8304142074351558
aF0.9086364841451818
aF0.8609825783157867
aF0.8441425676209768
aF0.8662345490626582
aF0.871803208275
aF0.8518936163055251
aF0.8899988414106149
aF0.8824663676017633
aF0.8836120309248949
aF0.9079206113603367
aF0.886524491602217
aF0.863476584843487
aF0.8614250071115327
aF0.8252487857927311
aF0.8465286225655032
aF0.825782798815519
aF0.8334602429029382
aF0.858080969060934
aF0.8205532534460281
aF0.8172671524096577
aF0.7585992044404443
aF0.8013597791770454
aF0.7715243150955691
aF0.771581643285031
aF0.7625237928975316
aF0.7492662222260826
aF0.733112498824046
aF0.7625285118496692
aF0.7681553464730078
aF0.7747797353189934
aF0.7541036913431028
aF0.7481844079059942
aF0.7576567043845605
aF0.749253880378639
aF0.7471964558399061
aF0.7387429142269298
aF0.7472351436557819
aF0.7443843662188336
aF0.7552625263898259
aF0.765937795538976
aF0.7485258885869966
aF0.7372289137207341
aF0.7315615669176744
aF0.758263013763467
aF0.7519900593261793
aF0.7231621565246564
aF0.758780321353829
aF0.7483603631799055
aF0.7379358474973314
aF0.7477602794947661
aF0.7442783479335691
aF0.7377668858582385
aF0.7456988462873416
aF0.7530636133905882
aF0.7367272686553861
aF0.7677742542327397
aF0.7142809786230733
aF0.7505088332225389
aF0.7406863055826578
aF0.7514861056154232
aF0.7418447445933161
aF0.7458055184601584
aF0.7433681174999764
aF0.7540216672725362
aF0.7506418886486725
aF0.756482061850917
aF0.7439843636849258
aF0.7696065106093313
aF0.7481392198556414
aF0.752377001754753
aF0.766712293743462
aF0.755485626165713
aF0.7473482286000298
aF0.736415188235126
aF0.7641236387665681
aF0.7444108666440818
asba(iparams
Statistics
p70
(dp71
g8
(lp72
I0
aI1
aI4
aI10
aI7
aI7
aI14
aI15
aI15
aI16
aI24
aI23
aI20
aI32
aI32
aI38
aI40
aI49
aI52
aI46
aI57
aI62
aI65
aI50
aI60
aI68
aI79
aI83
aI85
aI84
aI90
aI93
aI79
aI101
aI98
aI91
aI99
aI62
aI67
aI74
aI57
aI61
aI63
aI49
aI42
aI56
aI56
aI32
aI44
aI41
aI35
aI35
aI29
aI33
aI28
aI29
aI22
aI31
aI33
aI28
aI27
aI29
aI17
aI29
aI24
aI20
aI28
aI26
aI34
aI23
aI35
aI34
aI24
aI31
aI29
aI21
aI29
aI27
aI22
aI26
aI18
aI27
aI29
aI23
aI23
aI27
aI25
aI19
aI20
aI26
aI22
aI23
aI27
aI29
aI24
aI22
aI22
aI23
aI19
aI37
asg10
(lp73
I33
aI69
aI91
aI116
aI148
aI169
aI189
aI210
aI230
aI251
aI295
aI293
aI309
aI324
aI360
aI388
aI388
aI422
aI455
aI465
aI500
aI529
aI553
aI570
aI597
aI639
aI651
aI661
aI675
aI728
aI744
aI746
aI782
aI799
aI809
aI836
aI861
aI824
aI875
aI869
aI864
aI864
aI860
aI851
aI838
aI839
aI851
aI846
aI841
aI838
aI825
aI810
aI792
aI812
aI799
aI788
aI801
aI797
aI805
aI803
aI814
aI786
aI798
aI808
aI809
aI779
aI792
aI786
aI768
aI779
aI793
aI769
aI786
aI794
aI807
aI788
aI796
aI793
aI773
aI783
aI813
aI799
aI795
aI807
aI804
aI787
aI799
aI773
aI776
aI799
aI763
aI780
aI770
aI787
aI778
aI795
aI796
aI768
aI771
aI770
asg12
(lp74
I33
aI69
aI91
aI116
aI148
aI169
aI189
aI210
aI230
aI251
aI295
aI293
aI309
aI324
aI360
aI388
aI388
aI422
aI455
aI465
aI500
aI529
aI553
aI570
aI597
aI639
aI651
aI661
aI675
aI728
aI744
aI746
aI782
aI799
aI809
aI836
aI861
aI824
aI875
aI869
aI864
aI864
aI860
aI851
aI838
aI839
aI851
aI846
aI841
aI838
aI825
aI810
aI792
aI812
aI799
aI788
aI801
aI797
aI805
aI803
aI814
aI786
aI798
aI808
aI809
aI779
aI792
aI786
aI768
aI779
aI793
aI769
aI786
aI794
aI807
aI788
aI796
aI793
aI773
aI783
aI813
aI799
aI795
aI807
aI804
aI787
aI799
aI773
aI776
aI799
aI763
aI780
aI770
aI787
aI778
aI795
aI796
aI768
aI771
aI770
asg4
(lp75
F0.011042118072509766
aF0.02919793128967285
aF0.0807490348815918
aF0.13892197608947754
aF0.20560908317565918
aF0.2591738700866699
aF0.35916686058044434
aF0.4536631107330322
aF0.541863203048706
aF0.6578640937805176
aF0.8527021408081055
aF0.9709489345550537
aF1.1340889930725098
aF1.3569538593292236
aF1.6191670894622803
aF1.9773859977722168
aF2.159010171890259
aF2.106257915496826
aF2.369579792022705
aF2.567363977432251
aF2.8850951194763184
aF3.440199851989746
aF3.809159994125366
aF4.3506081104278564
aF4.7548511028289795
aF5.5335609912872314
aF8.462456941604614
aF9.811325073242188
aF10.100440979003906
aF10.219451904296875
aF10.176645040512085
aF11.066250085830688
aF13.16580581665039
aF14.958034038543701
aF18.07343602180481
aF17.840707063674927
aF21.489784955978394
aF21.661609888076782
aF23.289926052093506
aF22.767229080200195
aF20.929630994796753
aF17.08055806159973
aF16.836638927459717
aF16.730702877044678
aF16.584959983825684
aF16.782345056533813
aF16.997323989868164
aF16.497522830963135
aF16.460787057876587
aF16.404690980911255
aF16.39053988456726
aF16.301979064941406
aF16.33351707458496
aF15.963383913040161
aF16.48559594154358
aF16.139950037002563
aF15.985440015792847
aF15.850668907165527
aF16.009053945541382
aF15.644521951675415
aF15.76648497581482
aF15.56327199935913
aF15.727447986602783
aF16.304893970489502
aF16.115020990371704
aF15.464349031448364
aF15.54921007156372
aF15.806695938110352
aF15.584815979003906
aF14.918944120407104
aF15.124023914337158
aF15.752265930175781
aF15.171456098556519
aF16.195625066757202
aF20.84640598297119
aF20.633068084716797
aF20.841792106628418
aF21.405137062072754
aF17.65879487991333
aF15.696218013763428
aF15.51441502571106
aF15.463856935501099
aF15.992396116256714
aF15.513338088989258
aF15.773706912994385
aF15.266113042831421
aF15.193026065826416
aF15.555546045303345
aF16.197779178619385
aF15.919315099716187
aF15.064604043960571
aF15.528149127960205
aF15.14657711982727
aF15.073112964630127
aF14.762474060058594
aF15.266004085540771
aF15.122503995895386
aF15.174057960510254
aF15.810687065124512
aF15.383351802825928
asg15
g1
sg16
(lp76
I74
aI136
aI190
aI260
aI315
aI359
aI404
aI430
aI464
aI500
aI545
aI582
aI581
aI632
aI676
aI732
aI735
aI789
aI852
aI881
aI932
aI980
aI1028
aI1046
aI1093
aI1144
aI1186
aI1225
aI1235
aI1305
aI1347
aI1421
aI1470
aI1498
aI1528
aI1590
aI1616
aI1583
aI1619
aI1651
aI1604
aI1608
aI1576
aI1585
aI1585
aI1593
aI1567
aI1551
aI1518
aI1513
aI1485
aI1462
aI1484
aI1467
aI1441
aI1429
aI1431
aI1421
aI1462
aI1413
aI1446
aI1427
aI1451
aI1438
aI1430
aI1398
aI1416
aI1411
aI1369
aI1385
aI1388
aI1405
aI1379
aI1344
aI1400
aI1386
aI1416
aI1437
aI1402
aI1400
aI1408
aI1433
aI1432
aI1386
aI1404
aI1374
aI1405
aI1414
aI1392
aI1385
aI1382
aI1372
aI1344
aI1383
aI1364
aI1390
aI1419
aI1365
aI1381
aI1357
asg18
(lp77
I113
aI251
aI371
aI512
aI642
aI788
aI913
aI1075
aI1231
aI1387
aI1522
aI1644
aI1765
aI1900
aI2009
aI2110
aI2207
aI2329
aI2428
aI2524
aI2618
aI2684
aI2756
aI2800
aI2868
aI2912
aI2937
aI2948
aI2956
aI2996
aI2939
aI2922
aI2892
aI2850
aI2777
aI2694
aI2608
aI2467
aI2475
aI2393
aI2250
aI2225
aI2158
aI2131
aI2082
aI2045
aI1997
aI1981
aI1949
aI1914
aI1889
aI1855
aI1864
aI1840
aI1815
aI1804
aI1821
aI1794
aI1836
aI1810
aI1823
aI1797
aI1819
aI1816
aI1805
aI1786
aI1813
aI1801
aI1798
aI1806
aI1798
aI1798
aI1799
aI1775
aI1760
aI1747
aI1776
aI1773
aI1755
aI1772
aI1802
aI1785
aI1807
aI1778
aI1795
aI1731
aI1759
aI1753
aI1768
aI1772
aI1740
aI1738
aI1715
aI1757
aI1733
aI1745
aI1772
aI1714
aI1748
aI1722
asg20
(lp78
sg22
(lp79
I0
aI0
aI2
aI3
aI6
aI9
aI6
aI13
aI7
aI25
aI17
aI18
aI21
aI24
aI28
aI33
aI32
aI37
aI32
aI49
aI54
aI62
aI62
aI68
aI78
aI84
aI90
aI72
aI101
aI103
aI121
aI128
aI143
aI138
aI163
aI195
aI200
aI215
aI207
aI199
aI225
aI217
aI192
aI199
aI193
aI206
aI209
aI215
aI193
aI184
aI208
aI200
aI206
aI174
aI176
aI181
aI199
aI186
aI202
aI168
aI179
aI173
aI200
aI182
aI191
aI205
aI193
aI182
aI179
aI189
aI176
aI178
aI219
aI186
aI182
aI206
aI155
aI181
aI181
aI188
aI190
aI182
aI191
aI175
aI196
aI205
aI177
aI189
aI211
aI170
aI184
aI209
aI194
aI197
aI165
aI181
aI175
aI184
aI205
aI191
asg24
(lp80
F0.5839472934124907
aF0.7643319818188185
aF0.7350096954912857
aF0.776829068937716
aF0.7520823957523777
aF0.7488561482963327
aF0.7814304000318526
aF0.8341396398817539
aF0.8475331035369192
aF0.8279263488909204
aF0.8470095463676184
aF0.8505418393712314
aF0.8485909536445404
aF0.8488761749297475
aF0.8683158768550883
aF0.8578543956424542
aF0.8361548746734203
aF0.8391174874001934
aF0.9090974221156434
aF0.8564880500963742
aF0.8796003826928257
aF0.8781126280158245
aF0.8500766433414187
aF0.870690704724725
aF0.8502506728752612
aF0.8715641570765953
aF0.8790446318916475
aF0.8554183106797479
aF0.8989485853066199
aF0.9287736547247447
aF0.8743795430179789
aF0.8901473140274084
aF0.8884734475167244
aF0.9121762428781777
aF0.8932293636923263
aF0.8665051453730261
aF0.8361094644109611
aF0.8564119364509536
aF0.8318106659500193
aF0.8348926730351139
aF0.8472478326216625
aF0.8046365075099348
aF0.7940163921926534
aF0.8226811702627295
aF0.7790544256650859
aF0.7830429527479792
aF0.7682577122066799
aF0.7740464795363153
aF0.7700411988262184
aF0.7660546302704376
aF0.7546207982539777
aF0.7614648869778197
aF0.7489350695886621
aF0.7561933110305962
aF0.7507118700848561
aF0.745256525932529
aF0.766804203694595
aF0.7575086067512693
aF0.7711831368379285
aF0.7586936464742087
aF0.7657160349619418
aF0.7473587239196046
aF0.75386095984385
aF0.7424761894625417
aF0.7685931443791657
aF0.7395198731551423
aF0.7545131942917533
aF0.7410410591697104
aF0.7420605124070628
aF0.7661579123311889
aF0.7711156575965564
aF0.7279277261275711
aF0.7542832790714725
aF0.7900433146475528
aF0.7530282029021182
aF0.7501485245628847
aF0.7352932142572632
aF0.7477833949503785
aF0.764278795257716
aF0.7587328884454463
aF0.7710542438399434
aF0.7361788529669123
aF0.7630144084484001
aF0.7758345490129915
aF0.7511890694338088
aF0.76258905139176
aF0.764088827777538
aF0.7581601601761732
aF0.7489810133070354
aF0.7655317924616248
aF0.7397977361319023
aF0.7382141277158795
aF0.7588188121472754
aF0.7644802291469159
aF0.7532064203102158
aF0.7689085973034279
aF0.744894177957787
aF0.7524065663352183
aF0.7790528786210453
aF0.7433093938579607
asba(iparams
Statistics
p81
(dp82
g8
(lp83
I0
aI2
aI1
aI6
aI12
aI10
aI17
aI11
aI22
aI20
aI33
aI20
aI24
aI39
aI38
aI33
aI53
aI53
aI55
aI61
aI47
aI78
aI51
aI69
aI72
aI77
aI76
aI94
aI82
aI93
aI91
aI98
aI101
aI99
aI81
aI71
aI84
aI82
aI69
aI49
aI65
aI57
aI60
aI51
aI49
aI62
aI54
aI47
aI41
aI47
aI40
aI39
aI18
aI34
aI30
aI31
aI34
aI47
aI30
aI38
aI34
aI35
aI27
aI30
aI24
aI20
aI28
aI26
aI32
aI41
aI35
aI34
aI32
aI22
aI30
aI33
aI33
aI25
aI34
aI35
aI29
aI29
aI22
aI22
aI23
aI34
aI23
aI28
aI24
aI27
aI28
aI37
aI32
aI24
aI30
aI29
aI32
aI37
aI37
aI40
asg10
(lp84
I33
aI57
aI82
aI103
aI134
aI151
aI157
aI188
aI201
aI218
aI251
aI270
aI283
aI317
aI334
aI385
aI393
aI413
aI444
aI475
aI489
aI512
aI522
aI554
aI573
aI607
aI629
aI663
aI692
aI702
aI699
aI757
aI774
aI782
aI810
aI821
aI816
aI807
aI830
aI838
aI820
aI826
aI851
aI860
aI852
aI840
aI817
aI797
aI809
aI808
aI782
aI788
aI796
aI792
aI776
aI787
aI773
aI796
aI767
aI772
aI799
aI762
aI766
aI779
aI753
aI763
aI771
aI764
aI765
aI783
aI780
aI782
aI759
aI796
aI791
aI804
aI791
aI793
aI758
aI808
aI786
aI769
aI786
aI788
aI758
aI751
aI760
aI774
aI745
aI773
aI770
aI766
aI774
aI770
aI786
aI756
aI770
aI798
aI771
aI771
asg12
(lp85
I33
aI57
aI82
aI103
aI134
aI151
aI157
aI188
aI201
aI218
aI251
aI270
aI283
aI317
aI334
aI385
aI393
aI413
aI444
aI475
aI489
aI512
aI522
aI554
aI573
aI607
aI629
aI663
aI692
aI702
aI699
aI757
aI774
aI782
aI810
aI821
aI816
aI807
aI830
aI838
aI820
aI826
aI851
aI860
aI852
aI840
aI817
aI797
aI809
aI808
aI782
aI788
aI796
aI792
aI776
aI787
aI773
aI796
aI767
aI772
aI799
aI762
aI766
aI779
aI753
aI763
aI771
aI764
aI765
aI783
aI780
aI782
aI759
aI796
aI791
aI804
aI791
aI793
aI758
aI808
aI786
aI769
aI786
aI788
aI758
aI751
aI760
aI774
aI745
aI773
aI770
aI766
aI774
aI770
aI786
aI756
aI770
aI798
aI771
aI771
asg4
(lp86
F0.0066890716552734375
aF0.0261380672454834
aF0.048815011978149414
aF0.07171392440795898
aF0.11430597305297852
aF0.15465712547302246
aF0.20043396949768066
aF0.2403559684753418
aF0.32462215423583984
aF0.39394378662109375
aF0.5109350681304932
aF0.5947380065917969
aF0.7507960796356201
aF0.922450065612793
aF1.0436809062957764
aF1.256070852279663
aF1.5202810764312744
aF1.7881190776824951
aF2.2187418937683105
aF2.499567985534668
aF2.8314249515533447
aF3.2412710189819336
aF3.7006521224975586
aF4.240090847015381
aF5.0021021366119385
aF5.372945070266724
aF6.106935024261475
aF6.873847961425781
aF8.08354902267456
aF8.521744966506958
aF9.354789018630981
aF10.516762018203735
aF11.449481010437012
aF12.59408688545227
aF13.6075279712677
aF13.761851072311401
aF15.153163194656372
aF14.943489074707031
aF15.964190006256104
aF15.722142934799194
aF16.88675308227539
aF16.03347897529602
aF16.445567846298218
aF16.670430183410645
aF16.4415340423584
aF16.046956062316895
aF15.998649835586548
aF15.367002964019775
aF15.528061866760254
aF15.097030878067017
aF15.271436929702759
aF14.92964506149292
aF15.30883502960205
aF15.172021865844727
aF15.213555097579956
aF15.256067037582397
aF14.81714391708374
aF14.894525051116943
aF15.123089075088501
aF14.945954084396362
aF15.047019958496094
aF14.914025068283081
aF15.370553016662598
aF14.820587158203125
aF14.337800979614258
aF14.456378936767578
aF15.372467994689941
aF14.47338581085205
aF15.38132095336914
aF15.284148931503296
aF15.061547040939331
aF15.296638011932373
aF14.75559687614441
aF15.259736061096191
aF15.565958976745605
aF15.279028177261353
aF15.411393880844116
aF15.694194078445435
aF15.357936143875122
aF15.17276906967163
aF15.024135112762451
aF15.06371283531189
aF15.025103092193604
aF15.48266315460205
aF15.18324899673462
aF17.989408016204834
aF14.962404012680054
aF14.848635911941528
aF14.567179203033447
aF15.105977058410645
aF15.368791103363037
aF14.570864915847778
aF14.776779890060425
aF14.14230489730835
aF14.285924911499023
aF14.250149965286255
aF14.425939083099365
aF14.445962905883789
aF14.379994869232178
aF14.569456815719604
asg15
g1
sg16
(lp87
I61
aI112
aI157
aI194
aI237
aI270
aI293
aI336
aI370
aI419
aI454
aI489
aI517
aI565
aI621
aI672
aI694
aI751
aI803
aI831
aI894
aI933
aI964
aI1018
aI1032
aI1084
aI1139
aI1216
aI1244
aI1275
aI1335
aI1393
aI1430
aI1493
aI1512
aI1502
aI1545
aI1529
aI1547
aI1542
aI1548
aI1541
aI1561
aI1556
aI1544
aI1484
aI1444
aI1425
aI1426
aI1405
aI1383
aI1371
aI1405
aI1412
aI1376
aI1421
aI1342
aI1374
aI1350
aI1383
aI1376
aI1327
aI1318
aI1326
aI1291
aI1293
aI1308
aI1319
aI1350
aI1384
aI1373
aI1403
aI1380
aI1450
aI1432
aI1437
aI1401
aI1377
aI1328
aI1384
aI1362
aI1382
aI1383
aI1411
aI1328
aI1318
aI1313
aI1310
aI1314
aI1350
aI1324
aI1340
aI1320
aI1341
aI1356
aI1331
aI1369
aI1390
aI1329
aI1345
asg18
(lp88
I134
aI273
aI417
aI568
aI704
aI856
aI1021
aI1150
aI1302
aI1460
aI1582
aI1699
aI1831
aI1956
aI2060
aI2182
aI2275
aI2361
aI2447
aI2516
aI2598
aI2692
aI2723
aI2814
aI2843
aI2887
aI2907
aI2947
aI2927
aI2952
aI2936
aI2933
aI2849
aI2816
aI2750
aI2678
aI2622
aI2570
aI2532
aI2442
aI2390
aI2326
aI2333
aI2278
aI2228
aI2143
aI2075
aI2044
aI2023
aI2019
aI1981
aI1958
aI1961
aI1994
aI2008
aI2048
aI1991
aI1980
aI1949
aI1998
aI1998
aI1991
aI1966
aI1964
aI1954
aI1933
aI1920
aI1956
aI1958
aI1984
aI1957
aI1971
aI1934
aI1993
aI1993
aI1989
aI1941
aI1910
aI1877
aI1911
aI1899
aI1907
aI1903
aI1912
aI1896
aI1906
aI1910
aI1924
aI1931
aI1944
aI1944
aI1957
aI1915
aI1943
aI1936
aI1924
aI1965
aI1942
aI1894
aI1893
asg20
(lp89
sg22
(lp90
I0
aI0
aI3
aI3
aI3
aI5
aI11
aI7
aI16
aI14
aI19
aI29
aI26
aI20
aI15
aI31
aI35
aI38
aI59
aI48
aI61
aI43
aI74
aI61
aI79
aI82
aI106
aI102
aI101
aI121
aI120
aI138
aI122
aI151
aI164
aI197
aI196
aI164
aI171
aI205
aI225
aI193
aI189
aI184
aI199
aI209
aI188
aI187
aI195
aI178
aI201
aI190
aI194
aI176
aI185
aI169
aI189
aI175
aI190
aI179
aI173
aI187
aI195
aI193
aI185
aI185
aI177
aI170
aI184
aI180
aI181
aI184
aI186
aI180
aI185
aI192
aI199
aI202
aI190
aI174
aI193
aI185
aI169
aI199
aI208
aI183
aI172
aI182
aI194
aI166
aI169
aI179
aI185
aI181
aI187
aI176
aI183
aI187
aI197
aI198
asg24
(lp91
F0.6689918806446618
aF0.8092946151996485
aF0.8049000203197402
aF0.7952691702564557
aF0.8043305964132581
aF0.8548901509421212
aF0.7909878619712192
aF0.9680900695877931
aF0.8914853841515368
aF0.88836413216335
aF0.8817100830753868
aF0.8826510117750134
aF0.910984201025032
aF0.8670973255213633
aF0.9231817729764893
aF0.90401848965332
aF0.8889743475070667
aF0.8433780239501877
aF0.8528330706411872
aF0.8208380972856767
aF0.857566529216535
aF0.8795111529158831
aF0.8351765366085214
aF0.86902916707496
aF0.8953706959181262
aF0.895324225520854
aF0.9138205885984643
aF0.8935381113187845
aF0.8950075885499114
aF0.8989962230230992
aF0.9165694117484249
aF0.9076696744564863
aF0.8706091427452411
aF0.8704495051587379
aF0.8744895312225281
aF0.855210388678541
aF0.8180831844697082
aF0.8419038172774085
aF0.8281136603387533
aF0.8285091633052212
aF0.8332627919324118
aF0.8531384036549361
aF0.8083607713201495
aF0.8153780316619106
aF0.7995014919761385
aF0.8088982531577584
aF0.788995585280148
aF0.7787611497968272
aF0.7622946607452017
aF0.7894301169971911
aF0.7649592201859806
aF0.7993251964089154
aF0.7904553457964411
aF0.7689958873877202
aF0.7881878554983319
aF0.7716487137975472
aF0.7991589402200694
aF0.7755943922785163
aF0.7598869771517768
aF0.7825011104876015
aF0.7802462349638231
aF0.795148088348675
aF0.7876225417379195
aF0.7852227944025183
aF0.7893754074448456
aF0.7799023346293945
aF0.7812937445166135
aF0.7544462939225692
aF0.7725973501395578
aF0.7786109709038149
aF0.7732761113293264
aF0.7586307945984365
aF0.7834994927837232
aF0.8039589508953029
aF0.7822220023640087
aF0.7818395793138629
aF0.773323224083357
aF0.7718999889180871
aF0.784752168218749
aF0.7764191144188368
aF0.7816769822334323
aF0.7730281881662102
aF0.7689279948138416
aF0.7645186368491672
aF0.7612098033056369
aF0.7935963493627273
aF0.7745164599216438
aF0.7993296347915739
aF0.7891344788963089
aF0.7633258930728852
aF0.7694357039896449
aF0.7770030207495006
aF0.7564216837600981
aF0.792538936258586
aF0.7996692453874024
aF0.7720326873500789
aF0.7813222447533695
aF0.7740518724923057
aF0.7828525126956758
aF0.77236088788316
asba(iparams
Statistics
p92
(dp93
g8
(lp94
I0
aI3
aI6
aI8
aI13
aI19
aI23
aI14
aI21
aI19
aI36
aI28
aI39
aI35
aI36
aI51
aI56
aI46
aI55
aI70
aI59
aI76
aI59
aI85
aI75
aI68
aI83
aI73
aI95
aI72
aI71
aI86
aI85
aI87
aI92
aI76
aI67
aI62
aI58
aI59
aI55
aI47
aI61
aI64
aI43
aI52
aI42
aI44
aI31
aI43
aI40
aI44
aI38
aI38
aI44
aI38
aI44
aI30
aI34
aI36
aI34
aI45
aI43
aI32
aI43
aI26
aI34
aI32
aI32
aI41
aI33
aI41
aI33
aI33
aI42
aI39
aI25
aI39
aI40
aI41
aI35
aI28
aI44
aI37
aI40
aI27
aI41
aI42
aI32
aI24
aI43
aI34
aI43
aI36
aI33
aI42
aI37
aI30
aI31
aI48
asg10
(lp95
I27
aI49
aI64
aI83
aI104
aI121
aI157
aI164
aI181
aI214
aI233
aI272
aI293
aI312
aI337
aI346
aI373
aI397
aI413
aI445
aI474
aI490
aI535
aI557
aI612
aI608
aI621
aI623
aI628
aI692
aI716
aI721
aI752
aI752
aI806
aI814
aI821
aI822
aI810
aI829
aI825
aI819
aI828
aI802
aI787
aI807
aI778
aI764
aI761
aI775
aI793
aI773
aI763
aI784
aI777
aI788
aI765
aI759
aI766
aI755
aI754
aI754
aI756
aI775
aI790
aI763
aI759
aI782
aI777
aI759
aI764
aI766
aI745
aI751
aI734
aI755
aI753
aI758
aI750
aI759
aI759
aI756
aI761
aI733
aI745
aI754
aI727
aI752
aI736
aI735
aI754
aI756
aI738
aI739
aI728
aI753
aI737
aI761
aI743
aI725
asg12
(lp96
I27
aI49
aI64
aI83
aI104
aI121
aI157
aI164
aI181
aI214
aI233
aI272
aI293
aI312
aI337
aI346
aI373
aI397
aI413
aI445
aI474
aI490
aI535
aI557
aI612
aI608
aI621
aI623
aI628
aI692
aI716
aI721
aI752
aI752
aI806
aI814
aI821
aI822
aI810
aI829
aI825
aI819
aI828
aI802
aI787
aI807
aI778
aI764
aI761
aI775
aI793
aI773
aI763
aI784
aI777
aI788
aI765
aI759
aI766
aI755
aI754
aI754
aI756
aI775
aI790
aI763
aI759
aI782
aI777
aI759
aI764
aI766
aI745
aI751
aI734
aI755
aI753
aI758
aI750
aI759
aI759
aI756
aI761
aI733
aI745
aI754
aI727
aI752
aI736
aI735
aI754
aI756
aI738
aI739
aI728
aI753
aI737
aI761
aI743
aI725
asg4
(lp97
F0.00485992431640625
aF0.01605701446533203
aF0.032704830169677734
aF0.05476689338684082
aF0.08503890037536621
aF0.12092399597167969
aF0.17183685302734375
aF0.20864391326904297
aF0.27774715423583984
aF0.3462181091308594
aF0.44728684425354004
aF0.5692150592803955
aF0.6996831893920898
aF0.893773078918457
aF1.0663130283355713
aF1.289133071899414
aF1.5427889823913574
aF1.7446279525756836
aF2.1114869117736816
aF2.4256680011749268
aF2.7613518238067627
aF3.2429661750793457
aF3.519650936126709
aF4.144145965576172
aF4.7272138595581055
aF5.194672107696533
aF5.750864028930664
aF6.396241188049316
aF7.1618218421936035
aF8.013655185699463
aF9.03609299659729
aF10.087995052337646
aF10.975315809249878
aF11.581532001495361
aF12.586122035980225
aF13.281055927276611
aF13.754578828811646
aF14.45920205116272
aF14.869744062423706
aF14.539182901382446
aF14.925829887390137
aF14.997947216033936
aF14.618620157241821
aF14.414533138275146
aF14.36934494972229
aF14.770503044128418
aF14.214668989181519
aF14.13381290435791
aF14.297486066818237
aF14.293394088745117
aF14.099920988082886
aF14.142770767211914
aF14.006882905960083
aF14.26235818862915
aF14.522183179855347
aF14.261032104492188
aF14.291948080062866
aF14.073265075683594
aF14.211379051208496
aF13.820324897766113
aF13.718038082122803
aF13.661646127700806
aF13.814067125320435
aF14.270588874816895
aF14.586701154708862
aF13.637817859649658
aF13.763581037521362
aF13.942728042602539
aF13.530117988586426
aF13.936929941177368
aF13.912784814834595
aF14.032355785369873
aF13.784497022628784
aF13.869866132736206
aF13.904537200927734
aF14.07984709739685
aF13.870742082595825
aF13.975069046020508
aF14.193050146102905
aF13.99282693862915
aF13.92052412033081
aF14.025346040725708
aF14.063292980194092
aF13.603979110717773
aF13.60596489906311
aF13.985571146011353
aF16.435070991516113
aF15.812800884246826
aF14.399017095565796
aF14.47017502784729
aF15.425153017044067
aF14.048818111419678
aF14.184546947479248
aF14.189886093139648
aF14.260259866714478
aF13.88792109489441
aF13.777275085449219
aF14.114768981933594
aF14.376199007034302
aF14.113852977752686
asg15
g1
sg16
(lp98
I41
aI77
aI107
aI139
aI165
aI197
aI236
aI278
aI319
aI355
aI392
aI440
aI484
aI527
aI556
aI594
aI647
aI683
aI714
aI757
aI825
aI870
aI921
aI955
aI1020
aI1052
aI1074
aI1064
aI1107
aI1206
aI1275
aI1315
aI1389
aI1393
aI1454
aI1490
aI1483
aI1481
aI1455
aI1488
aI1464
aI1479
aI1435
aI1380
aI1389
aI1384
aI1351
aI1304
aI1315
aI1340
aI1347
aI1322
aI1337
aI1350
aI1393
aI1356
aI1334
aI1310
aI1307
aI1297
aI1280
aI1305
aI1264
aI1353
aI1330
aI1294
aI1294
aI1310
aI1315
aI1307
aI1297
aI1282
aI1284
aI1283
aI1260
aI1292
aI1268
aI1269
aI1285
aI1303
aI1292
aI1270
aI1310
aI1254
aI1277
aI1272
aI1210
aI1228
aI1217
aI1228
aI1278
aI1260
aI1248
aI1256
aI1239
aI1246
aI1280
aI1272
aI1284
aI1262
asg18
(lp99
I155
aI293
aI444
aI600
aI768
aI936
aI1079
aI1223
aI1366
aI1492
aI1595
aI1725
aI1841
aI1939
aI2058
aI2170
aI2246
aI2316
aI2432
aI2471
aI2544
aI2591
aI2643
aI2680
aI2723
aI2728
aI2742
aI2756
aI2741
aI2758
aI2756
aI2738
aI2757
aI2732
aI2740
aI2683
aI2626
aI2581
aI2526
aI2514
aI2440
aI2418
aI2406
aI2329
aI2293
aI2281
aI2239
aI2220
aI2226
aI2260
aI2251
aI2213
aI2210
aI2198
aI2236
aI2187
aI2180
aI2171
aI2131
aI2127
aI2104
aI2128
aI2099
aI2133
aI2097
aI2062
aI2097
aI2107
aI2085
aI2073
aI2073
aI2063
aI2067
aI2084
aI2082
aI2094
aI2071
aI2059
aI2097
aI2094
aI2088
aI2059
aI2092
aI2056
aI2100
aI2122
aI2116
aI2130
aI2137
aI2130
aI2168
aI2152
aI2139
aI2141
aI2111
aI2152
aI2140
aI2117
aI2137
aI2127
asg20
(lp100
sg22
(lp101
I0
aI0
aI1
aI1
aI3
aI5
aI4
aI10
aI18
aI16
aI13
aI24
aI16
aI36
aI31
aI47
aI41
aI46
aI56
aI55
aI54
aI59
aI55
aI81
aI90
aI77
aI110
aI96
aI121
aI119
aI119
aI133
aI151
aI136
aI149
aI165
aI169
aI204
aI184
aI193
aI188
aI193
aI201
aI178
aI179
aI177
aI190
aI186
aI168
aI170
aI174
aI196
aI184
aI166
aI189
aI183
aI196
aI177
aI193
aI187
aI181
aI170
aI197
aI176
aI180
aI187
aI166
aI173
aI167
aI192
aI191
aI182
aI200
aI186
aI187
aI177
aI172
aI187
aI182
aI159
aI165
aI187
aI178
aI169
aI156
aI165
aI174
aI183
aI169
aI178
aI164
aI165
aI187
aI180
aI175
aI158
aI176
aI191
aI179
aI162
asg24
(lp102
F0.6728227179073725
aF0.8909604944907277
aF0.8033576995431326
aF0.9318654721007109
aF0.9082944617865343
aF0.8953502501993382
aF0.9498607353341433
aF1.002008744043368
aF0.9909233096907079
aF0.9472185499325655
aF0.9633023380811637
aF0.9219005643644209
aF0.9045087919959889
aF0.8785322941861531
aF0.9429504751682065
aF0.9503926379415085
aF0.9249093378426779
aF0.9057000548997903
aF0.8959367401691734
aF0.889303991617574
aF0.9101927094141261
aF0.8760862133835008
aF0.8660214121919801
aF0.920028320025554
aF0.9177974997936125
aF0.8764817041259432
aF0.8693176500525176
aF0.8857743085856497
aF0.9243356470505681
aF0.9495547253286712
aF0.9069888163060652
aF0.9117674286325601
aF0.8712012671039047
aF0.8755429505909569
aF0.8893129958527966
aF0.8482902498403745
aF0.8306639139675722
aF0.8561293062129813
aF0.8601767665004455
aF0.829054643403969
aF0.8247894782275886
aF0.7913002708122328
aF0.8164889236829251
aF0.8334652323772702
aF0.7887699765095766
aF0.8324713180525043
aF0.7943533547177899
aF0.8092669791237255
aF0.8266516913451787
aF0.7798863975171461
aF0.8471001456238477
aF0.8186509142022185
aF0.8385481854784059
aF0.8120913732867534
aF0.8257126656352706
aF0.820818332498908
aF0.8150538434920719
aF0.7951563419384859
aF0.804566244931213
aF0.8127911267888914
aF0.8256311920941952
aF0.8216117597662451
aF0.8184750017418687
aF0.8076667396034749
aF0.7944787946618431
aF0.8040459479916888
aF0.8096158094268967
aF0.819729415751207
aF0.8100587897760736
aF0.8016321224938854
aF0.8131742325642944
aF0.7886963764338065
aF0.7902227452027256
aF0.7918905810795704
aF0.8082805668102193
aF0.8025750195329564
aF0.8029472549647361
aF0.8039916639425844
aF0.8330416124697693
aF0.8341753626375131
aF0.7952918092271961
aF0.7889775548189965
aF0.8055233905231581
aF0.8117000630249129
aF0.7932703433622733
aF0.7849361164000748
aF0.7987240891227813
aF0.8130245015352795
aF0.8248567121975197
aF0.8333209352324669
aF0.826357730195745
aF0.8023929847611684
aF0.8218653347404247
aF0.803405989994253
aF0.8063777727244552
aF0.8085792471072466
aF0.8153725559979551
aF0.7983336993114719
aF0.804924698240646
aF0.8103410747945059
asba(iparams
Statistics
p103
(dp104
g8
(lp105
I0
aI2
aI7
aI8
aI8
aI11
aI22
aI19
aI24
aI41
aI36
aI37
aI41
aI39
aI45
aI53
aI44
aI54
aI51
aI81
aI56
aI81
aI67
aI67
aI73
aI75
aI69
aI73
aI63
aI92
aI110
aI92
aI82
aI95
aI91
aI72
aI67
aI56
aI52
aI62
aI56
aI63
aI41
aI32
aI59
aI42
aI49
aI43
aI34
aI49
aI47
aI46
aI52
aI58
aI43
aI49
aI38
aI43
aI29
aI39
aI39
aI40
aI41
aI39
aI44
aI38
aI44
aI47
aI39
aI40
aI40
aI47
aI42
aI42
aI54
aI53
aI50
aI34
aI53
aI41
aI35
aI28
aI49
aI40
aI44
aI45
aI39
aI35
aI46
aI50
aI36
aI48
aI41
aI48
aI41
aI51
aI40
aI44
aI36
aI55
asg10
(lp106
I17
aI25
aI41
aI60
aI87
aI95
aI113
aI138
aI172
aI188
aI214
aI252
aI280
aI279
aI309
aI341
aI370
aI401
aI415
aI423
aI444
aI482
aI509
aI518
aI556
aI583
aI596
aI630
aI637
aI662
aI689
aI711
aI732
aI720
aI732
aI741
aI758
aI771
aI798
aI762
aI802
aI743
aI763
aI759
aI761
aI755
aI755
aI725
aI742
aI747
aI750
aI745
aI743
aI733
aI758
aI744
aI728
aI727
aI742
aI727
aI714
aI727
aI716
aI702
aI685
aI704
aI720
aI704
aI728
aI721
aI744
aI768
aI755
aI746
aI735
aI752
aI732
aI746
aI729
aI714
aI714
aI696
aI721
aI722
aI721
aI744
aI725
aI764
aI762
aI751
aI760
aI762
aI744
aI740
aI761
aI745
aI750
aI756
aI739
aI685
asg12
(lp107
I17
aI25
aI41
aI60
aI87
aI95
aI113
aI138
aI172
aI188
aI214
aI252
aI280
aI279
aI309
aI341
aI370
aI401
aI415
aI423
aI444
aI482
aI509
aI518
aI556
aI583
aI596
aI630
aI637
aI662
aI689
aI711
aI732
aI720
aI732
aI741
aI758
aI771
aI798
aI762
aI802
aI743
aI763
aI759
aI761
aI755
aI755
aI725
aI742
aI747
aI750
aI745
aI743
aI733
aI758
aI744
aI728
aI727
aI742
aI727
aI714
aI727
aI716
aI702
aI685
aI704
aI720
aI704
aI728
aI721
aI744
aI768
aI755
aI746
aI735
aI752
aI732
aI746
aI729
aI714
aI714
aI696
aI721
aI722
aI721
aI744
aI725
aI764
aI762
aI751
aI760
aI762
aI744
aI740
aI761
aI745
aI750
aI756
aI739
aI685
asg4
(lp108
F0.003147125244140625
aF0.009783029556274414
aF0.024418115615844727
aF0.04583907127380371
aF0.05652499198913574
aF0.08490204811096191
aF0.1306908130645752
aF0.18601107597351074
aF0.24241900444030762
aF0.36362218856811523
aF0.42514705657958984
aF0.5582671165466309
aF0.7363510131835938
aF0.8671209812164307
aF1.0405309200286865
aF1.2448608875274658
aF1.5629851818084717
aF1.9336400032043457
aF2.0552799701690674
aF2.3918440341949463
aF2.8400840759277344
aF3.398083209991455
aF3.719655990600586
aF4.113837003707886
aF4.634443044662476
aF5.126199007034302
aF5.811529159545898
aF6.515394926071167
aF7.1798131465911865
aF8.11965298652649
aF9.12266492843628
aF10.091254949569702
aF11.249108076095581
aF12.187966108322144
aF12.289039134979248
aF13.371926069259644
aF13.291864156723022
aF14.180083990097046
aF14.305866956710815
aF14.160938024520874
aF14.702552080154419
aF14.205924034118652
aF13.753532886505127
aF13.603632926940918
aF13.822135925292969
aF13.972592115402222
aF13.82070517539978
aF14.369688034057617
aF14.45262098312378
aF14.311052083969116
aF13.88935899734497
aF13.695729970932007
aF13.762967109680176
aF13.940407037734985
aF13.743448972702026
aF13.68992805480957
aF13.4636709690094
aF14.000306844711304
aF13.158851861953735
aF13.505120992660522
aF13.288651943206787
aF13.039057970046997
aF13.03921890258789
aF12.710953950881958
aF12.614828824996948
aF12.937199831008911
aF12.862880945205688
aF12.809765815734863
aF13.420928955078125
aF13.690083026885986
aF13.589935064315796
aF13.581130981445312
aF13.53068995475769
aF13.511318922042847
aF13.46320104598999
aF13.662750005722046
aF13.30476999282837
aF13.423821926116943
aF13.36239504814148
aF13.91527795791626
aF13.051710844039917
aF13.272058963775635
aF13.225053071975708
aF13.008250951766968
aF13.152353048324585
aF13.483989000320435
aF13.237537145614624
aF13.74725604057312
aF13.574842929840088
aF13.797303915023804
aF13.535751819610596
aF13.921512842178345
aF13.436215877532959
aF13.348598957061768
aF13.559669017791748
aF13.832751989364624
aF14.402875185012817
aF13.333229064941406
aF13.016393184661865
aF12.865895986557007
asg15
g1
sg16
(lp109
I19
aI35
aI55
aI83
aI112
aI138
aI168
aI212
aI254
aI289
aI352
aI386
aI441
aI447
aI479
aI541
aI598
aI626
aI682
aI705
aI759
aI794
aI822
aI853
aI905
aI958
aI986
aI1035
aI1098
aI1167
aI1217
aI1251
aI1281
aI1271
aI1267
aI1309
aI1325
aI1337
aI1367
aI1340
aI1321
aI1305
aI1243
aI1264
aI1232
aI1265
aI1235
aI1226
aI1271
aI1250
aI1229
aI1218
aI1231
aI1219
aI1232
aI1214
aI1172
aI1187
aI1169
aI1190
aI1196
aI1190
aI1156
aI1123
aI1105
aI1095
aI1138
aI1132
aI1199
aI1207
aI1223
aI1263
aI1238
aI1245
aI1248
aI1239
aI1197
aI1183
aI1184
aI1148
aI1137
aI1128
aI1164
aI1166
aI1176
aI1228
aI1202
aI1244
aI1257
aI1287
aI1248
aI1283
aI1227
aI1215
aI1215
aI1253
aI1244
aI1206
aI1183
aI1103
asg18
(lp110
I157
aI324
aI497
aI642
aI799
aI961
aI1113
aI1261
aI1402
aI1550
aI1632
aI1750
aI1856
aI1958
aI2054
aI2152
aI2244
aI2313
aI2395
aI2455
aI2498
aI2550
aI2588
aI2635
aI2684
aI2727
aI2773
aI2825
aI2806
aI2864
aI2859
aI2836
aI2800
aI2753
aI2704
aI2654
aI2624
aI2613
aI2576
aI2484
aI2463
aI2431
aI2366
aI2392
aI2397
aI2393
aI2362
aI2324
aI2345
aI2343
aI2335
aI2330
aI2311
aI2270
aI2272
aI2240
aI2220
aI2246
aI2231
aI2262
aI2293
aI2297
aI2272
aI2279
aI2259
aI2245
aI2277
aI2275
aI2331
aI2348
aI2339
aI2356
aI2324
aI2352
aI2336
aI2309
aI2286
aI2272
aI2262
aI2271
aI2264
aI2268
aI2309
aI2305
aI2306
aI2333
aI2298
aI2318
aI2333
aI2383
aI2310
aI2357
aI2290
aI2291
aI2276
aI2270
aI2244
aI2229
aI2213
aI2182
asg20
(lp111
sg22
(lp112
I0
aI0
aI4
aI4
aI4
aI7
aI7
aI14
aI13
aI14
aI24
aI26
aI32
aI30
aI36
aI34
aI51
aI52
aI46
aI48
aI77
aI62
aI72
aI71
aI82
aI75
aI93
aI100
aI100
aI91
aI124
aI136
aI154
aI160
aI136
aI150
aI150
aI165
aI194
aI182
aI197
aI180
aI186
aI185
aI189
aI186
aI171
aI185
aI194
aI172
aI183
aI189
aI179
aI164
aI187
aI132
aI180
aI190
aI177
aI160
aI152
aI161
aI187
aI173
aI173
aI167
aI165
aI150
aI162
aI137
aI172
aI169
aI171
aI188
aI177
aI190
aI175
aI168
aI170
aI176
aI163
aI177
aI167
aI148
aI166
aI158
aI164
aI191
aI181
aI168
aI176
aI177
aI165
aI174
aI194
aI158
aI169
aI168
aI194
aI199
asg24
(lp113
F0.7317845613924149
aF0.8279174845471644
aF0.778670931627349
aF0.9266412254770212
aF0.9902908067600176
aF0.9439626585948881
aF0.9383320593712328
aF0.9250961211143969
aF0.9896638438029304
aF0.9839505509271714
aF0.974991046020694
aF0.9581921227865895
aF0.9482827196990079
aF0.9599916159278137
aF0.9913678701048639
aF0.9998757121544453
aF0.8964946069423371
aF1.0128521641341424
aF0.9738097246821207
aF0.9081448020721957
aF0.9240938912575578
aF0.9170506210684906
aF0.9169839782596424
aF0.9212542399965141
aF0.9275355468379951
aF0.913585298406016
aF0.9124355039148413
aF0.9654507689091947
aF0.9140715688503933
aF0.9068383430046365
aF0.95516317109693
aF0.9439550473970131
aF0.9078558880846156
aF0.9080016483024312
aF0.8889231785920438
aF0.8541293696897058
aF0.8469692106201793
aF0.8589020356646544
aF0.8304634954761297
aF0.8376921000972727
aF0.8173493490139238
aF0.8086565421312913
aF0.838115195431832
aF0.8120542206236823
aF0.8598580532199802
aF0.8266395781238064
aF0.8363422009678412
aF0.855593355141835
aF0.8074894859872345
aF0.828041679573263
aF0.8382466476753587
aF0.862057371457844
aF0.8433933163887787
aF0.8177846659918135
aF0.8152235979348503
aF0.8247934738320454
aF0.8388504330928432
aF0.8246057947623958
aF0.8372504449503855
aF0.8358320976117215
aF0.8396326098297455
aF0.8338567134672303
aF0.8062855212526233
aF0.8270738359553225
aF0.8339269664971168
aF0.8398871271163683
aF0.8341573651049623
aF0.8293331704576016
aF0.8523095115043543
aF0.8534692052193947
aF0.859139195441162
aF0.8303597151303439
aF0.8277357557161732
aF0.8304858750386389
aF0.8306217325091855
aF0.8143424725680041
aF0.8102587147529253
aF0.8225777123247329
aF0.8532409646948766
aF0.8139359543871322
aF0.8362355048980091
aF0.8235963265343977
aF0.8321786762614728
aF0.8375687410154716
aF0.8607257992553438
aF0.8222084825156872
aF0.8160836319491445
aF0.8378069172983131
aF0.803582566422683
aF0.8464370107973943
aF0.8762671268334794
aF0.83335872937947
aF0.8073124983745289
aF0.8536447249722201
aF0.8115037251724353
aF0.8328574443256053
aF0.8177613731075899
aF0.8313129684374007
aF0.8050436599645313
aF0.8365795836218595
asba(iparams
Statistics
p114
(dp115
g8
(lp116
I0
aI1
aI5
aI9
aI11
aI16
aI20
aI28
aI26
aI31
aI33
aI41
aI38
aI43
aI43
aI40
aI54
aI54
aI49
aI57
aI57
aI62
aI76
aI51
aI65
aI64
aI95
aI62
aI72
aI89
aI94
aI88
aI83
aI83
aI84
aI72
aI75
aI51
aI53
aI55
aI49
aI53
aI65
aI49
aI62
aI45
aI52
aI58
aI44
aI48
aI49
aI60
aI47
aI56
aI49
aI56
aI44
aI46
aI41
aI63
aI43
aI50
aI49
aI48
aI41
aI55
aI67
aI51
aI49
aI52
aI55
aI50
aI37
aI59
aI46
aI45
aI43
aI43
aI56
aI49
aI61
aI42
aI39
aI50
aI49
aI45
aI63
aI54
aI43
aI55
aI52
aI46
aI37
aI80
aI62
aI51
aI64
aI52
aI53
aI44
asg10
(lp117
I11
aI24
aI41
aI55
aI82
aI102
aI121
aI143
aI167
aI192
aI207
aI235
aI246
aI273
aI297
aI326
aI323
aI349
aI396
aI401
aI432
aI440
aI463
aI519
aI518
aI537
aI579
aI630
aI610
aI633
aI667
aI666
aI660
aI685
aI727
aI715
aI711
aI700
aI720
aI725
aI699
aI706
aI738
aI737
aI723
aI716
aI708
aI718
aI697
aI718
aI693
aI710
aI702
aI717
aI687
aI693
aI702
aI697
aI699
aI696
aI691
aI695
aI694
aI695
aI705
aI709
aI702
aI683
aI698
aI689
aI699
aI680
aI709
aI681
aI705
aI698
aI721
aI683
aI678
aI693
aI691
aI692
aI701
aI678
aI724
aI683
aI711
aI730
aI725
aI718
aI702
aI696
aI702
aI675
aI725
aI735
aI710
aI710
aI689
aI706
asg12
(lp118
I11
aI24
aI41
aI55
aI82
aI102
aI121
aI143
aI167
aI192
aI207
aI235
aI246
aI273
aI297
aI326
aI323
aI349
aI396
aI401
aI432
aI440
aI463
aI519
aI518
aI537
aI579
aI630
aI610
aI633
aI667
aI666
aI660
aI685
aI727
aI715
aI711
aI700
aI720
aI725
aI699
aI706
aI738
aI737
aI723
aI716
aI708
aI718
aI697
aI718
aI693
aI710
aI702
aI717
aI687
aI693
aI702
aI697
aI699
aI696
aI691
aI695
aI694
aI695
aI705
aI709
aI702
aI683
aI698
aI689
aI699
aI680
aI709
aI681
aI705
aI698
aI721
aI683
aI678
aI693
aI691
aI692
aI701
aI678
aI724
aI683
aI711
aI730
aI725
aI718
aI702
aI696
aI702
aI675
aI725
aI735
aI710
aI710
aI689
aI706
asg4
(lp119
F0.002989053726196289
aF0.008426904678344727
aF0.020233869552612305
aF0.04444694519042969
aF0.059391021728515625
aF0.10554885864257812
aF0.15745782852172852
aF0.20762991905212402
aF0.2700068950653076
aF0.3707430362701416
aF0.46477413177490234
aF0.5979650020599365
aF0.667510986328125
aF0.905059814453125
aF1.054826021194458
aF1.2753140926361084
aF1.5056300163269043
aF1.778899908065796
aF2.0825560092926025
aF2.276297092437744
aF2.602447032928467
aF2.9949960708618164
aF3.406916856765747
aF3.833237886428833
aF4.394195079803467
aF4.8753321170806885
aF5.920090913772583
aF6.336721897125244
aF6.735010147094727
aF7.60377311706543
aF8.504015922546387
aF10.229329109191895
aF12.16775393486023
aF11.454035997390747
aF11.976166009902954
aF13.214311122894287
aF12.275552988052368
aF12.372274160385132
aF12.944418907165527
aF13.442368984222412
aF12.680476903915405
aF12.54420518875122
aF12.678215980529785
aF12.677358150482178
aF12.832765102386475
aF12.623756885528564
aF12.621715068817139
aF12.789361000061035
aF12.590065002441406
aF12.628016948699951
aF12.52706503868103
aF12.545917987823486
aF12.676769971847534
aF12.826817989349365
aF12.749666929244995
aF13.172582864761353
aF12.778703927993774
aF12.717721939086914
aF12.562166929244995
aF12.449854850769043
aF12.423959016799927
aF12.463521003723145
aF12.36720895767212
aF13.083996057510376
aF12.535091876983643
aF12.485779047012329
aF12.621490001678467
aF12.240302085876465
aF12.641844987869263
aF12.524296045303345
aF12.421010971069336
aF12.410009860992432
aF12.699858903884888
aF12.755078792572021
aF13.165226936340332
aF12.538002014160156
aF12.6281578540802
aF12.739624977111816
aF12.759108066558838
aF12.828796863555908
aF12.933941125869751
aF12.804667949676514
aF12.832597017288208
aF12.608422994613647
aF12.968981981277466
aF12.649899005889893
aF13.078485012054443
aF13.055336952209473
aF12.887167930603027
aF13.025452136993408
aF13.17061185836792
aF13.107810974121094
aF12.64201307296753
aF12.740809202194214
aF12.96155595779419
aF13.153794050216675
aF12.844228982925415
aF12.989120960235596
aF12.55995512008667
aF12.4495370388031
asg15
g1
sg16
(lp120
I17
aI32
aI50
aI74
aI103
aI126
aI156
aI201
aI238
aI283
aI304
aI340
aI376
aI404
aI452
aI488
aI487
aI532
aI585
aI616
aI640
aI666
aI705
aI806
aI812
aI867
aI938
aI985
aI988
aI1036
aI1081
aI1086
aI1113
aI1155
aI1196
aI1169
aI1157
aI1139
aI1154
aI1142
aI1152
aI1178
aI1161
aI1175
aI1169
aI1156
aI1158
aI1177
aI1127
aI1120
aI1093
aI1114
aI1099
aI1138
aI1103
aI1118
aI1113
aI1136
aI1112
aI1109
aI1061
aI1070
aI1082
aI1102
aI1093
aI1114
aI1081
aI1057
aI1108
aI1075
aI1086
aI1076
aI1092
aI1095
aI1155
aI1108
aI1113
aI1099
aI1114
aI1094
aI1074
aI1110
aI1115
aI1080
aI1146
aI1099
aI1140
aI1159
aI1166
aI1159
aI1137
aI1135
aI1090
aI1109
aI1158
aI1151
aI1113
aI1151
aI1083
aI1098
asg18
(lp121
I152
aI322
aI476
aI636
aI794
aI941
aI1080
aI1217
aI1347
aI1475
aI1580
aI1715
aI1803
aI1899
aI1991
aI2095
aI2180
aI2246
aI2332
aI2377
aI2432
aI2489
aI2539
aI2601
aI2651
aI2682
aI2751
aI2762
aI2757
aI2813
aI2801
aI2776
aI2768
aI2748
aI2736
aI2716
aI2710
aI2671
aI2658
aI2612
aI2589
aI2588
aI2593
aI2552
aI2564
aI2510
aI2518
aI2539
aI2509
aI2540
aI2494
aI2512
aI2468
aI2510
aI2462
aI2480
aI2454
aI2482
aI2472
aI2495
aI2484
aI2477
aI2491
aI2510
aI2518
aI2523
aI2513
aI2507
aI2550
aI2526
aI2501
aI2479
aI2502
aI2491
aI2532
aI2490
aI2511
aI2498
aI2547
aI2532
aI2534
aI2526
aI2519
aI2510
aI2572
aI2524
aI2596
aI2590
aI2596
aI2596
aI2606
aI2584
aI2557
aI2579
aI2550
aI2513
aI2488
aI2512
aI2484
aI2482
asg20
(lp122
sg22
(lp123
I0
aI0
aI2
aI8
aI3
aI10
aI18
aI12
aI20
aI22
aI21
aI23
aI20
aI41
aI32
aI40
aI48
aI54
aI57
aI49
aI56
aI71
aI70
aI78
aI91
aI85
aI108
aI106
aI122
aI118
aI132
aI113
aI135
aI131
aI143
aI146
aI143
aI159
aI185
aI171
aI170
aI171
aI157
aI176
aI163
aI168
aI166
aI178
aI158
aI186
aI186
aI157
aI186
aI172
aI151
aI149
aI172
aI167
aI157
aI145
aI167
aI164
aI147
aI167
aI166
aI166
aI167
aI160
aI159
aI152
aI150
aI177
aI178
aI158
aI168
aI138
aI167
aI165
aI152
aI158
aI162
aI166
aI158
aI175
aI155
aI170
aI167
aI144
aI150
aI166
aI176
aI166
aI163
aI167
aI164
aI179
aI167
aI144
aI162
aI173
asg24
(lp124
F0.960850602233026
aF1.018504703036818
aF0.7988566409501774
aF0.9569278248760099
aF1.0366040075772973
aF1.0249743111434313
aF1.0000783758031813
aF1.039895508952216
aF1.045027172207589
aF0.9789289617486355
aF0.9811107346085107
aF0.97319339687913
aF0.9753068739717252
aF0.8780236909019522
aF0.9595112280196949
aF0.9016756825380089
aF0.9579847089941378
aF0.9645628920962036
aF1.0016532755667407
aF0.9475689652514783
aF0.8936868026317101
aF0.9423055190442455
aF0.9597491744653989
aF0.885977293898766
aF0.9894742041154304
aF0.9361135234766502
aF0.9295531249376314
aF0.9233757711487371
aF0.9138461034183499
aF0.9134462605603412
aF0.919475032706706
aF0.9367963954279473
aF0.8953483928236976
aF0.869023699382279
aF0.8727615795993388
aF0.8462130918262084
aF0.8640007862018574
aF0.8986631980650379
aF0.8284240914927311
aF0.8561327370284252
aF0.8665449248148495
aF0.8296243493593155
aF0.876797049486219
aF0.8446607362882668
aF0.8470587339696255
aF0.822060652284559
aF0.8533618537025337
aF0.8211464764840694
aF0.8447853568312323
aF0.8623982979984884
aF0.8490169092157824
aF0.8802797854582509
aF0.8363252533744358
aF0.8436293328565657
aF0.856029526738952
aF0.8457479280849364
aF0.8575125119537927
aF0.8469908638280483
aF0.8582738238178812
aF0.833966447037166
aF0.8375311275504058
aF0.8488704336074293
aF0.8651604825637209
aF0.8534566348104015
aF0.8552657719937277
aF0.8512037189147577
aF0.865107174112282
aF0.8845865407959196
aF0.8594805013595116
aF0.8468953700586933
aF0.860629761332177
aF0.8602149580283621
aF0.8358196383958867
aF0.8438447940628301
aF0.8522150127415629
aF0.8494902485621395
aF0.8712787198346845
aF0.8540340711949885
aF0.8240117391604226
aF0.8638781255174709
aF0.8481933843624682
aF0.8431544382531286
aF0.8802430098515557
aF0.8465033870585446
aF0.8589041916790057
aF0.8514353837563943
aF0.8759965331522063
aF0.8561394410841116
aF0.8771058577134465
aF0.8602479071205464
aF0.8597047113058963
aF0.815849008578218
aF0.9078538609309922
aF0.8603028719878186
aF0.8602199497724954
aF0.8523208456508127
aF0.8406285694819303
aF0.8442798429923819
aF0.8258905946674623
aF0.8356384382948643
asba(iparams
Statistics
p125
(dp126
g8
(lp127
I0
aI4
aI8
aI18
aI16
aI13
aI24
aI19
aI29
aI26
aI39
aI30
aI40
aI43
aI39
aI38
aI54
aI46
aI65
aI52
aI46
aI71
aI63
aI97
aI47
aI57
aI73
aI65
aI73
aI81
aI76
aI94
aI82
aI80
aI77
aI75
aI64
aI57
aI67
aI61
aI68
aI55
aI54
aI63
aI76
aI52
aI58
aI44
aI52
aI57
aI66
aI64
aI64
aI54
aI55
aI64
aI51
aI57
aI58
aI61
aI73
aI50
aI54
aI48
aI62
aI80
aI54
aI60
aI60
aI53
aI61
aI58
aI54
aI58
aI58
aI50
aI65
aI60
aI49
aI43
aI55
aI60
aI66
aI86
aI67
aI60
aI63
aI56
aI66
aI59
aI68
aI56
aI51
aI65
aI65
aI68
aI62
aI60
aI61
aI53
asg10
(lp128
I14
aI28
aI40
aI57
aI75
aI87
aI92
aI130
aI144
aI170
aI173
aI216
aI227
aI257
aI264
aI295
aI301
aI339
aI340
aI367
aI371
aI409
aI427
aI441
aI478
aI504
aI511
aI544
aI573
aI566
aI579
aI588
aI612
aI615
aI636
aI646
aI645
aI665
aI662
aI665
aI657
aI667
aI664
aI682
aI671
aI684
aI662
aI656
aI656
aI675
aI670
aI641
aI646
aI626
aI655
aI660
aI661
aI655
aI684
aI632
aI652
aI673
aI656
aI642
aI618
aI649
aI641
aI631
aI641
aI618
aI646
aI688
aI655
aI670
aI655
aI662
aI632
aI665
aI659
aI662
aI632
aI648
aI617
aI658
aI630
aI672
aI668
aI669
aI686
aI695
aI682
aI701
aI683
aI679
aI679
aI663
aI678
aI667
aI684
aI686
asg12
(lp129
I14
aI28
aI40
aI57
aI75
aI87
aI92
aI130
aI144
aI170
aI173
aI216
aI227
aI257
aI264
aI295
aI301
aI339
aI340
aI367
aI371
aI409
aI427
aI441
aI478
aI504
aI511
aI544
aI573
aI566
aI579
aI588
aI612
aI615
aI636
aI646
aI645
aI665
aI662
aI665
aI657
aI667
aI664
aI682
aI671
aI684
aI662
aI656
aI656
aI675
aI670
aI641
aI646
aI626
aI655
aI660
aI661
aI655
aI684
aI632
aI652
aI673
aI656
aI642
aI618
aI649
aI641
aI631
aI641
aI618
aI646
aI688
aI655
aI670
aI655
aI662
aI632
aI665
aI659
aI662
aI632
aI648
aI617
aI658
aI630
aI672
aI668
aI669
aI686
aI695
aI682
aI701
aI683
aI679
aI679
aI663
aI678
aI667
aI684
aI686
asg4
(lp130
F0.0027189254760742188
aF0.011183023452758789
aF0.02822399139404297
aF0.051828861236572266
aF0.08111000061035156
aF0.10370993614196777
aF0.16563105583190918
aF0.20556402206420898
aF0.30389404296875
aF0.3741111755371094
aF0.49250197410583496
aF0.6443939208984375
aF0.7296319007873535
aF0.9294450283050537
aF1.0696990489959717
aF1.2391810417175293
aF1.4962680339813232
aF1.7236909866333008
aF1.9784228801727295
aF2.2801930904388428
aF2.5449368953704834
aF3.0732760429382324
aF3.3802640438079834
aF3.839632987976074
aF4.2171759605407715
aF4.588801860809326
aF5.250484943389893
aF5.710824012756348
aF6.301298141479492
aF6.888435125350952
aF7.73436713218689
aF8.431334972381592
aF9.174200057983398
aF9.85788893699646
aF10.227570056915283
aF10.588381052017212
aF10.939780950546265
aF11.141427040100098
aF11.59881591796875
aF11.5818510055542
aF11.817018032073975
aF11.724066019058228
aF11.715928077697754
aF12.105355978012085
aF12.196836948394775
aF12.073501825332642
aF11.919841051101685
aF11.987667083740234
aF11.847107172012329
aF11.867501974105835
aF11.868180990219116
aF11.909384965896606
aF12.030728816986084
aF11.888575792312622
aF11.972553014755249
aF11.853842973709106
aF11.982944965362549
aF11.865669012069702
aF12.138875007629395
aF11.755100965499878
aF12.115861892700195
aF12.086205005645752
aF12.067789077758789
aF11.963871955871582
aF11.72232699394226
aF11.944808959960938
aF11.720330953598022
aF11.706380128860474
aF12.038352012634277
aF11.91296100616455
aF12.282639026641846
aF12.562336206436157
aF12.096608877182007
aF12.446847915649414
aF12.152587175369263
aF12.002716064453125
aF12.122282028198242
aF12.006242990493774
aF12.19152307510376
aF11.966040849685669
aF12.206538915634155
aF12.215552806854248
aF12.019556045532227
aF12.358735799789429
aF12.456587076187134
aF12.320608139038086
aF12.439452886581421
aF12.676077842712402
aF12.363332033157349
aF12.221431970596313
aF12.357205867767334
aF12.402716875076294
aF12.126965999603271
aF12.28214406967163
aF12.636642932891846
aF12.294327020645142
aF12.343523979187012
aF12.350986003875732
aF12.476622104644775
aF12.325954914093018
asg15
g1
sg16
(lp131
I17
aI33
aI49
aI68
aI100
aI121
aI130
aI163
aI190
aI230
aI247
aI300
aI331
aI362
aI378
aI409
aI430
aI476
aI479
aI517
aI537
aI582
aI617
aI645
aI724
aI755
aI801
aI812
aI855
aI849
aI891
aI914
aI950
aI965
aI978
aI984
aI992
aI1012
aI1034
aI1048
aI993
aI1028
aI1007
aI1055
aI1054
aI1072
aI1040
aI1020
aI1003
aI1037
aI1003
aI970
aI965
aI951
aI979
aI1008
aI994
aI967
aI1023
aI994
aI1010
aI1058
aI1017
aI992
aI946
aI964
aI956
aI953
aI955
aI967
aI988
aI1045
aI1006
aI1028
aI984
aI1000
aI982
aI1010
aI1025
aI1012
aI986
aI991
aI963
aI986
aI999
aI1033
aI1031
aI1048
aI1084
aI1079
aI1093
aI1068
aI1046
aI1044
aI1038
aI1046
aI1066
aI1023
aI1087
aI1049
asg18
(lp132
I161
aI309
aI480
aI606
aI747
aI890
aI1038
aI1178
aI1316
aI1444
aI1550
aI1667
aI1748
aI1865
aI1935
aI2032
aI2112
aI2194
aI2265
aI2312
aI2390
aI2452
aI2511
aI2553
aI2597
aI2627
aI2674
aI2714
aI2744
aI2770
aI2791
aI2830
aI2823
aI2806
aI2786
aI2777
aI2788
aI2806
aI2826
aI2772
aI2745
aI2758
aI2733
aI2758
aI2747
aI2743
aI2726
aI2715
aI2738
aI2760
aI2750
aI2716
aI2724
aI2719
aI2732
aI2738
aI2730
aI2712
aI2757
aI2707
aI2733
aI2743
aI2743
aI2740
aI2721
aI2736
aI2712
aI2711
aI2710
aI2735
aI2733
aI2755
aI2733
aI2771
aI2736
aI2768
aI2788
aI2797
aI2764
aI2798
aI2789
aI2825
aI2790
aI2841
aI2785
aI2807
aI2799
aI2769
aI2785
aI2773
aI2755
aI2731
aI2708
aI2727
aI2709
aI2723
aI2697
aI2662
aI2690
aI2652
asg20
(lp133
sg22
(lp134
I0
aI0
aI6
aI4
aI6
aI11
aI18
aI15
aI20
aI17
aI26
aI45
aI29
aI42
aI51
aI43
aI50
aI48
aI68
aI58
aI69
aI74
aI78
aI61
aI83
aI82
aI105
aI78
aI107
aI105
aI122
aI116
aI129
aI140
aI112
aI128
aI120
aI152
aI151
aI164
aI157
aI152
aI151
aI160
aI159
aI148
aI132
aI169
aI163
aI158
aI170
aI178
aI163
aI148
aI127
aI154
aI145
aI151
aI157
aI137
aI157
aI167
aI154
aI161
aI167
aI169
aI149
aI141
aI155
aI151
aI157
aI139
aI142
aI143
aI149
aI154
aI147
aI148
aI159
aI164
aI154
aI163
aI149
aI149
aI150
aI138
aI151
aI159
aI153
aI143
aI167
aI180
aI155
aI179
aI165
aI151
aI141
aI182
aI151
aI137
asg24
(lp135
F0.7156441816715934
aF0.8984681537221176
aF1.0185047030368175
aF1.1697105381028488
aF0.950626863746304
aF0.9143821059102268
aF1.001172662795182
aF0.9719246687201548
aF1.0411077070082724
aF1.0775243846530833
aF1.0371945387295678
aF0.9755071018344351
aF0.999783384458019
aF0.8961353889011483
aF0.9679312664402712
aF0.9420013245938091
aF0.9505009781066615
aF0.9534524531499852
aF0.9161411258833032
aF0.9108614118117442
aF0.9256746360534048
aF0.9130608605489632
aF0.9118589485463551
aF0.9781857923497271
aF0.890047112453462
aF0.895277613544747
aF0.8547860385152027
aF0.8970756121852143
aF0.906072437319812
aF0.8910313595931042
aF0.9061152818410573
aF0.9020743527725533
aF0.8634379190357512
aF0.898376436092231
aF0.8891479297341798
aF0.8792352666607324
aF0.9029511496659445
aF0.8758910423061167
aF0.874866013180683
aF0.8742333554930073
aF0.8844577597960007
aF0.9186031869848473
aF0.888243774344896
aF0.893865323309647
aF0.8514745463276685
aF0.8402928094221065
aF0.866481456191731
aF0.8433469104161634
aF0.8754138213567048
aF0.8742668697184177
aF0.872002393835715
aF0.9195170036739669
aF0.8767617080863958
aF0.8807579535200023
aF0.8940473508106469
aF0.8767790476655846
aF0.8706113764905501
aF0.896311931250527
aF0.8947164614932492
aF0.8766715902557854
aF0.8847527826644676
aF0.8865952010056597
aF0.8547630390466794
aF0.8397885069249996
aF0.9043756306591918
aF0.8829820172766998
aF0.8587786904112579
aF0.8912369431900432
aF0.8697677548811193
aF0.8942840399412427
aF0.9218624042440089
aF0.8452537514921614
aF0.8529632295348687
aF0.8596725868106415
aF0.8653129130928054
aF0.8390311346314842
aF0.8931405536146214
aF0.8511347317500971
aF0.8730873412967219
aF0.8925211963453954
aF0.870913453917045
aF0.865492549792471
aF0.8927898488451173
aF0.8749252717469012
aF0.8948281286392566
aF0.8901306100510634
aF0.8908657932723655
aF0.8804575332747651
aF0.8802377241141025
aF0.8559158669731795
aF0.8668196122349118
aF0.8843403116291447
aF0.8715215348130978
aF0.9035825753524869
aF0.895549439375848
aF0.8594377660848737
aF0.8498521490480178
aF0.8939008915321983
aF0.8790239183015337
aF0.8681881214727245
asba.