(lp0
(iparams
RoadParameters
p1
(dp2
S'cellLength'
p3
I12
sS'flow'
p4
F3.5
sS'turnTime'
p5
F17.78061224489796
sba(iparams
Statistics
p6
(dp7
S'numMissedCars'
p8
(lp9
I11
aI12
aI21
aI19
aI18
aI22
aI15
aI20
aI16
aI11
aI18
aI11
aI14
aI15
aI16
aI24
aI16
aI21
aI12
aI15
aI16
aI15
aI18
aI23
aI20
aI17
aI15
aI20
aI15
aI16
aI18
aI22
aI22
aI12
aI11
aI14
aI10
aI17
aI16
aI15
aI19
aI12
aI20
aI16
aI16
aI8
aI20
aI17
aI14
aI13
aI15
aI18
aI21
aI18
aI18
aI9
aI11
aI21
aI17
aI12
aI10
aI18
aI14
aI12
aI16
aI9
aI20
aI18
aI8
aI13
aI10
aI15
aI19
aI19
aI15
aI12
aI11
aI16
aI18
aI26
aI15
aI21
aI3
aI13
aI12
aI11
aI16
aI20
aI15
aI16
aI18
aI15
aI16
aI11
aI19
aI9
aI16
aI15
aI21
aI20
aI19
aI14
aI14
aI22
aI24
aI20
aI12
aI16
aI20
aI18
aI12
aI9
aI18
aI19
aI16
aI13
aI19
aI11
aI9
aI19
aI15
aI24
aI21
aI14
aI10
aI15
aI19
aI15
aI16
aI19
aI17
aI21
aI17
aI22
aI23
aI18
aI14
aI12
aI17
aI11
aI14
aI17
aI21
aI19
aI22
aI15
aI17
aI16
aI17
aI8
aI22
aI23
aI17
aI15
aI12
aI22
aI23
aI20
aI14
aI14
aI13
aI22
aI13
aI13
aI18
aI16
aI14
aI13
aI21
aI16
aI19
aI13
aI17
aI11
aI19
aI17
aI17
aI19
aI12
aI22
aI21
aI25
aI13
aI16
aI16
aI21
aI18
aI17
aI10
aI19
aI18
aI21
aI15
aI15
aI14
aI9
aI21
aI10
aI15
aI14
aI14
aI14
aI14
aI10
aI18
aI18
aI14
aI22
aI16
aI12
aI13
aI24
aI13
aI13
aI18
aI14
aI17
aI10
aI13
aI13
aI19
aI25
aI18
aI17
aI25
aI21
aI14
aI19
aI18
aI24
aI14
aI18
aI17
aI16
aI16
aI11
aI11
aI16
aI17
aI18
aI19
aI12
aI18
aI20
aI18
aI16
aI15
aI13
aI15
aI18
asS'g'
p10
(lp11
sS'carsMakingLC'
p12
(lp13
I132
aI128
aI140
aI146
aI159
aI160
aI155
aI155
aI151
aI139
aI145
aI144
aI132
aI146
aI153
aI153
aI145
aI136
aI135
aI141
aI157
aI148
aI152
aI163
aI156
aI140
aI147
aI141
aI137
aI138
aI145
aI158
aI151
aI142
aI139
aI128
aI132
aI145
aI145
aI138
aI147
aI158
aI157
aI150
aI142
aI142
aI141
aI138
aI142
aI152
aI156
aI155
aI148
aI145
aI136
aI134
aI143
aI158
aI156
aI137
aI135
aI149
aI138
aI134
aI129
aI142
aI148
aI150
aI146
aI141
aI130
aI156
aI153
aI143
aI149
aI146
aI150
aI166
aI171
aI161
aI155
aI148
aI136
aI133
aI140
aI131
aI148
aI154
aI143
aI157
aI162
aI159
aI154
aI138
aI131
aI139
aI147
aI143
aI143
aI148
aI142
aI137
aI142
aI150
aI165
aI145
aI134
aI145
aI143
aI133
aI131
aI138
aI142
aI150
aI147
aI133
aI135
aI133
aI146
aI149
aI144
aI161
aI154
aI145
aI149
aI146
aI143
aI150
aI147
aI163
aI171
aI156
aI159
aI163
aI151
aI140
aI138
aI140
aI145
aI146
aI151
aI161
aI165
aI156
aI146
aI145
aI143
aI148
aI136
aI144
aI150
aI147
aI135
aI141
aI149
aI149
aI159
aI156
aI157
aI158
aI153
aI149
aI148
aI151
aI153
aI151
aI149
aI145
aI155
aI143
aI142
aI145
aI144
aI150
aI140
aI132
aI142
aI136
aI143
aI148
aI142
aI150
aI138
aI150
aI151
aI149
aI136
aI131
aI147
aI157
aI153
aI144
aI132
aI133
aI129
aI139
aI156
aI144
aI133
aI151
aI164
aI148
aI150
aI151
aI143
aI143
aI143
aI153
aI143
aI135
aI151
aI150
aI138
aI149
aI157
aI149
aI149
aI143
aI140
aI149
aI163
aI177
aI166
aI156
aI160
aI155
aI137
aI145
aI151
aI143
aI141
aI160
aI157
aI157
aI145
aI144
aI143
aI145
aI144
aI154
aI147
aI146
aI143
aI141
aI135
aI143
aI139
aI144
aI155
aI145
asS'carsDoLC'
p14
(lp15
I132
aI128
aI140
aI146
aI159
aI160
aI155
aI155
aI151
aI139
aI145
aI144
aI132
aI146
aI153
aI153
aI145
aI136
aI135
aI141
aI157
aI148
aI152
aI163
aI156
aI140
aI147
aI141
aI137
aI138
aI145
aI158
aI151
aI142
aI139
aI128
aI132
aI145
aI145
aI138
aI147
aI158
aI157
aI150
aI142
aI142
aI141
aI138
aI142
aI152
aI156
aI155
aI148
aI145
aI136
aI134
aI143
aI158
aI156
aI137
aI135
aI149
aI138
aI134
aI129
aI142
aI148
aI150
aI146
aI141
aI130
aI156
aI153
aI143
aI149
aI146
aI150
aI166
aI171
aI161
aI155
aI148
aI136
aI133
aI140
aI131
aI148
aI154
aI143
aI157
aI162
aI159
aI154
aI138
aI131
aI139
aI147
aI143
aI143
aI148
aI142
aI137
aI142
aI150
aI165
aI145
aI134
aI145
aI143
aI133
aI131
aI138
aI142
aI150
aI147
aI133
aI135
aI133
aI146
aI149
aI144
aI161
aI154
aI145
aI149
aI146
aI143
aI150
aI147
aI163
aI171
aI156
aI159
aI163
aI151
aI140
aI138
aI140
aI145
aI146
aI151
aI161
aI165
aI156
aI146
aI145
aI143
aI148
aI136
aI144
aI150
aI147
aI135
aI141
aI149
aI149
aI159
aI156
aI157
aI158
aI153
aI149
aI148
aI151
aI153
aI151
aI149
aI145
aI155
aI143
aI142
aI145
aI144
aI150
aI140
aI132
aI142
aI136
aI143
aI148
aI142
aI150
aI138
aI150
aI151
aI149
aI136
aI131
aI147
aI157
aI153
aI144
aI132
aI133
aI129
aI139
aI156
aI144
aI133
aI151
aI164
aI148
aI150
aI151
aI143
aI143
aI143
aI153
aI143
aI135
aI151
aI150
aI138
aI149
aI157
aI149
aI149
aI143
aI140
aI149
aI163
aI177
aI166
aI156
aI160
aI155
aI137
aI145
aI151
aI143
aI141
aI160
aI157
aI157
aI145
aI144
aI143
aI145
aI144
aI154
aI147
aI146
aI143
aI141
aI135
aI143
aI139
aI144
aI155
aI145
asg5
(lp16
F2.355742931365967
aF2.2770519256591797
aF2.61832594871521
aF2.7110249996185303
aF2.992792844772339
aF3.0236599445343018
aF2.8809030055999756
aF2.8511388301849365
aF2.6662418842315674
aF2.626084089279175
aF2.584134101867676
aF2.585129976272583
aF2.4963810443878174
aF2.6648850440979004
aF2.865262031555176
aF2.6199820041656494
aF2.7382547855377197
aF2.5202701091766357
aF2.642666816711426
aF2.6361958980560303
aF2.8240668773651123
aF2.8037800788879395
aF3.05651593208313
aF3.080828905105591
aF2.879478931427002
aF2.6468210220336914
aF2.663349151611328
aF2.5967979431152344
aF2.558137893676758
aF2.5589358806610107
aF2.7673611640930176
aF2.8522839546203613
aF2.6778759956359863
aF2.511370897293091
aF2.4722630977630615
aF2.362628936767578
aF2.575148105621338
aF2.712500810623169
aF2.736157178878784
aF2.7196121215820312
aF2.7408339977264404
aF2.8731729984283447
aF2.8459930419921875
aF2.720876932144165
aF2.5445661544799805
aF2.6291210651397705
aF2.606994152069092
aF2.5664100646972656
aF2.5542750358581543
aF2.8613369464874268
aF2.9850430488586426
aF2.943880081176758
aF2.710102081298828
aF2.6141090393066406
aF2.428217887878418
aF2.3769679069519043
aF2.6634199619293213
aF2.964818000793457
aF2.8614680767059326
aF2.4533729553222656
aF2.5112619400024414
aF2.7308709621429443
aF2.575438976287842
aF2.559796094894409
aF2.3699522018432617
aF2.61604905128479
aF2.749177932739258
aF2.7291371822357178
aF2.6561050415039062
aF2.5507969856262207
aF2.3830981254577637
aF2.8817429542541504
aF2.9567790031433105
aF2.694485902786255
aF2.674708127975464
aF2.576446056365967
aF2.7961649894714355
aF3.038996934890747
aF3.1858110427856445
aF2.982250928878784
aF2.992851972579956
aF2.722653865814209
aF2.510641098022461
aF2.406360149383545
aF2.496613025665283
aF2.5559449195861816
aF2.79854416847229
aF2.852509021759033
aF2.7100589275360107
aF2.9537839889526367
aF3.029067039489746
aF3.023056983947754
aF2.7801249027252197
aF2.6734659671783447
aF2.378592014312744
aF2.703122138977051
aF2.7435929775238037
aF2.656741142272949
aF2.7032630443573
aF2.806601047515869
aF2.5397870540618896
aF2.567021131515503
aF2.669354200363159
aF2.8950040340423584
aF3.148754119873047
aF2.7436418533325195
aF2.529296875
aF2.6618471145629883
aF2.6695029735565186
aF2.5178840160369873
aF2.3647470474243164
aF2.557284116744995
aF2.688934087753296
aF2.7778639793395996
aF2.740173101425171
aF2.5928900241851807
aF2.5599918365478516
aF2.405190944671631
aF2.642810106277466
aF2.7571380138397217
aF2.8666210174560547
aF3.0450990200042725
aF2.925623893737793
aF2.7222321033477783
aF2.733128070831299
aF2.730426073074341
aF2.672780990600586
aF2.780555009841919
aF2.7774710655212402
aF3.0269861221313477
aF3.1513960361480713
aF3.148862838745117
aF3.1944520473480225
aF3.1557087898254395
aF2.866377115249634
aF2.6763339042663574
aF2.5727579593658447
aF2.6550381183624268
aF2.674103021621704
aF2.6080639362335205
aF2.706489086151123
aF2.998607873916626
aF3.067544937133789
aF3.0323398113250732
aF2.7691597938537598
aF2.7345619201660156
aF2.6854639053344727
aF2.8332529067993164
aF2.4538118839263916
aF2.733367919921875
aF2.8764607906341553
aF2.8502299785614014
aF2.5420379638671875
aF2.5007388591766357
aF2.820140838623047
aF2.836313009262085
aF2.944520950317383
aF2.7611470222473145
aF2.819511890411377
aF2.8709349632263184
aF2.8242478370666504
aF2.8245689868927
aF2.7679901123046875
aF2.8670120239257812
aF2.830314874649048
aF2.880650043487549
aF2.876305103302002
aF2.752000093460083
aF2.8997199535369873
aF2.6875460147857666
aF2.600277900695801
aF2.665756940841675
aF2.63102388381958
aF2.8658969402313232
aF2.702937126159668
aF2.5130770206451416
aF2.792409896850586
aF2.548102855682373
aF2.678441047668457
aF2.7818381786346436
aF2.632293939590454
aF2.7798969745635986
aF2.5314149856567383
aF2.8157501220703125
aF2.885800838470459
aF2.817538022994995
aF2.476494073867798
aF2.3536548614501953
aF2.7475078105926514
aF3.019753932952881
aF2.8447868824005127
aF2.7310431003570557
aF2.44850492477417
aF2.4919419288635254
aF2.343769073486328
aF2.6955881118774414
aF2.7843539714813232
aF2.502467155456543
aF2.527083158493042
aF2.8737919330596924
aF3.037290096282959
aF2.7312519550323486
aF2.6390769481658936
aF2.810749053955078
aF2.7959489822387695
aF2.6715359687805176
aF2.703819990158081
aF2.8014559745788574
aF2.5365359783172607
aF2.503849983215332
aF2.823529005050659
aF2.7399771213531494
aF2.4744820594787598
aF2.7465450763702393
aF2.81522798538208
aF2.6971688270568848
aF2.79141902923584
aF2.504854917526245
aF2.467180013656616
aF2.84171199798584
aF3.06666898727417
aF3.3498291969299316
aF3.163856029510498
aF3.0338540077209473
aF3.0133841037750244
aF2.7779159545898438
aF2.418586015701294
aF2.5626018047332764
aF2.7992100715637207
aF2.5769500732421875
aF2.5600860118865967
aF2.9597890377044678
aF2.9492130279541016
aF2.824877977371216
aF2.499189853668213
aF2.4900929927825928
aF2.6011219024658203
aF2.7797040939331055
aF2.6002578735351562
aF2.779541015625
aF2.709192991256714
aF2.695791006088257
aF2.570470094680786
aF2.6664350032806396
aF2.484989881515503
aF2.5323610305786133
aF2.5096189975738525
aF2.6244900226593018
aF2.8469150066375732
aF2.613507032394409
asS'params'
p17
g1
sS'carsInCS'
p18
(lp19
I137
aI130
aI153
aI155
aI169
aI169
aI165
aI163
aI157
aI151
aI153
aI148
aI140
aI152
aI162
aI158
aI155
aI144
aI146
aI152
aI160
aI161
aI165
aI171
aI161
aI154
aI151
aI146
aI148
aI143
aI151
aI164
aI158
aI144
aI144
aI139
aI146
aI150
aI153
aI152
aI158
aI166
aI166
aI158
aI148
aI151
aI152
aI149
aI149
aI164
aI166
aI164
aI153
aI152
aI139
aI138
aI153
aI168
aI165
aI144
aI142
aI156
aI145
aI143
aI134
aI148
aI157
aI157
aI149
aI145
aI139
aI161
aI163
aI153
aI158
aI150
aI161
aI176
aI181
aI171
aI170
aI157
aI145
aI141
aI145
aI143
aI156
aI163
aI155
aI167
aI171
aI167
aI163
aI148
aI132
aI148
aI151
aI148
aI152
aI160
aI145
aI145
aI149
aI164
aI180
aI157
aI141
aI152
aI154
aI142
aI138
aI149
aI155
aI161
aI154
aI140
aI144
aI141
aI153
aI154
aI160
aI173
aI164
aI153
aI154
aI156
aI151
aI155
aI154
aI175
aI181
aI173
aI171
aI174
aI161
aI148
aI144
aI151
aI156
aI156
aI161
aI172
aI169
aI164
aI156
aI156
aI153
aI156
aI139
aI151
aI163
aI160
aI143
aI147
aI155
aI160
aI172
aI163
aI168
aI166
aI162
aI156
aI156
aI161
aI162
aI163
aI159
aI153
aI164
aI154
aI149
aI152
aI152
aI158
aI145
aI140
aI154
aI144
aI150
aI158
aI150
aI156
aI142
aI158
aI159
aI152
aI140
aI137
aI153
aI172
aI161
aI152
aI138
aI142
aI134
aI150
aI161
aI148
aI143
aI162
aI172
aI156
aI155
aI160
aI155
aI151
aI156
aI164
aI148
aI143
aI161
aI161
aI146
aI159
aI163
aI155
aI159
aI147
aI148
aI163
aI173
aI189
aI177
aI170
aI167
aI161
aI145
aI151
aI157
aI147
aI147
aI168
aI165
aI162
aI149
aI149
aI154
aI156
aI151
aI165
aI155
aI155
aI149
aI151
aI143
aI149
aI144
aI151
aI162
aI152
asS'carsRequestingLC'
p20
(lp21
I138
aI133
aI155
aI157
aI171
aI170
aI166
aI163
aI157
aI151
aI154
aI149
aI141
aI152
aI163
aI159
aI157
aI146
aI147
aI154
aI161
aI162
aI167
aI173
aI162
aI154
aI152
aI147
aI150
aI144
aI152
aI165
aI159
aI146
aI146
aI141
aI147
aI150
aI153
aI153
aI160
aI167
aI167
aI159
aI148
aI152
aI152
aI151
aI150
aI165
aI166
aI164
aI155
aI153
aI139
aI139
aI154
aI170
aI167
aI145
aI144
aI158
aI146
aI144
aI136
aI149
aI160
aI159
aI149
aI147
aI141
aI162
aI164
aI154
aI160
aI151
aI162
aI176
aI182
aI173
aI172
aI158
aI147
aI143
aI148
aI143
aI156
aI163
aI156
aI168
aI172
aI168
aI163
aI150
aI133
aI149
aI153
aI150
aI155
aI163
aI146
aI148
aI150
aI165
aI181
aI159
aI144
aI154
aI155
aI142
aI140
aI149
aI156
aI163
aI155
aI141
aI144
aI142
aI155
aI156
aI162
aI173
aI165
aI153
aI155
aI157
aI154
aI156
aI156
aI176
aI182
aI173
aI172
aI177
aI162
aI149
aI146
aI152
aI157
aI157
aI163
aI173
aI170
aI165
aI159
aI157
aI154
aI158
aI141
aI152
aI165
aI161
aI144
aI147
aI157
aI161
aI175
aI165
aI170
aI168
aI164
aI158
aI157
aI162
aI163
aI164
aI160
aI154
aI165
aI156
aI152
aI155
aI154
aI160
aI148
aI142
aI155
aI144
aI152
aI161
aI153
aI157
aI143
aI159
aI161
aI154
aI143
aI139
aI154
aI174
aI162
aI155
aI140
aI144
aI137
aI151
aI163
aI149
aI143
aI162
aI172
aI159
aI157
aI161
aI157
aI153
aI158
aI165
aI150
aI145
aI161
aI162
aI147
aI160
aI163
aI156
aI160
aI147
aI149
aI164
aI174
aI189
aI178
aI172
aI169
aI161
aI145
aI153
aI159
aI148
aI149
aI168
aI166
aI162
aI151
aI150
aI155
aI157
aI151
aI165
aI156
aI157
aI151
aI152
aI144
aI150
aI146
aI152
aI163
aI153
asS'statsPerSim'
p22
(lp23
sS'numMadeCars'
p24
(lp25
I37
aI29
aI20
aI30
aI18
aI21
aI32
aI23
aI26
aI28
aI29
aI29
aI32
aI25
aI24
aI25
aI31
aI18
aI34
aI27
aI23
aI30
aI19
aI25
aI22
aI22
aI34
aI34
aI31
aI23
aI20
aI23
aI32
aI29
aI23
aI25
aI29
aI26
aI25
aI28
aI27
aI26
aI21
aI35
aI29
aI32
aI28
aI20
aI23
aI28
aI27
aI31
aI32
aI27
aI28
aI26
aI26
aI29
aI28
aI37
aI26
aI30
aI27
aI41
aI26
aI27
aI22
aI27
aI33
aI27
aI27
aI25
aI29
aI19
aI25
aI32
aI33
aI29
aI30
aI25
aI28
aI26
aI39
aI25
aI29
aI25
aI21
aI22
aI25
aI20
aI28
aI30
aI28
aI34
aI30
aI24
aI27
aI34
aI21
aI26
aI28
aI30
aI28
aI27
aI29
aI30
aI26
aI26
aI26
aI29
aI25
aI29
aI23
aI24
aI24
aI28
aI26
aI25
aI31
aI19
aI26
aI25
aI27
aI25
aI28
aI28
aI24
aI23
aI20
aI27
aI32
aI25
aI23
aI24
aI33
aI24
aI28
aI23
aI32
aI26
aI27
aI26
aI26
aI23
aI20
aI32
aI24
aI26
aI28
aI23
aI23
aI23
aI28
aI31
aI30
aI21
aI26
aI20
aI34
aI28
aI27
aI21
aI27
aI26
aI27
aI27
aI27
aI28
aI31
aI37
aI26
aI23
aI20
aI32
aI21
aI20
aI26
aI31
aI32
aI22
aI31
aI21
aI31
aI29
aI25
aI25
aI20
aI24
aI25
aI26
aI38
aI30
aI27
aI25
aI26
aI29
aI21
aI33
aI25
aI21
aI35
aI22
aI30
aI28
aI32
aI23
aI24
aI32
aI25
aI23
aI25
aI33
aI26
aI23
aI24
aI29
aI25
aI25
aI22
aI22
aI24
aI18
aI30
aI30
aI25
aI35
aI32
aI30
aI21
aI20
aI26
aI22
aI25
aI29
aI32
aI30
aI28
aI27
aI24
aI27
aI30
aI35
aI32
aI27
aI25
aI21
aI27
aI27
aI31
aI28
asS'totalCars'
p26
(lp27
I553
aI771
aI966
aI1148
aI1320
aI1479
aI1590
aI1704
aI1807
aI1889
aI1952
aI2004
aI2039
aI2088
aI2120
aI2159
aI2171
aI2163
aI2161
aI2177
aI2189
aI2173
aI2170
aI2166
aI2167
aI2158
aI2158
aI2164
aI2184
aI2194
aI2202
aI2209
aI2221
aI2227
aI2210
aI2210
aI2218
aI2227
aI2210
aI2189
aI2196
aI2175
aI2173
aI2179
aI2221
aI2214
aI2218
aI2212
aI2227
aI2240
aI2210
aI2214
aI2220
aI2210
aI2203
aI2195
aI2195
aI2181
aI2188
aI2180
aI2176
aI2176
aI2167
aI2155
aI2172
aI2170
aI2160
aI2194
aI2214
aI2228
aI2230
aI2254
aI2257
aI2252
aI2248
aI2257
aI2240
aI2231
aI2237
aI2240
aI2245
aI2227
aI2208
aI2204
aI2195
aI2222
aI2225
aI2210
aI2200
aI2198
aI2183
aI2188
aI2190
aI2169
aI2194
aI2196
aI2184
aI2173
aI2180
aI2197
aI2210
aI2223
aI2233
aI2252
aI2270
aI2271
aI2255
aI2270
aI2293
aI2272
aI2280
aI2262
aI2259
aI2259
aI2247
aI2236
aI2234
aI2210
aI2221
aI2231
aI2243
aI2246
aI2256
aI2247
aI2236
aI2234
aI2232
aI2217
aI2218
aI2213
aI2214
aI2196
aI2193
aI2186
aI2173
aI2154
aI2153
aI2175
aI2178
aI2182
aI2176
aI2191
aI2197
aI2208
aI2217
aI2217
aI2213
aI2213
aI2233
aI2226
aI2232
aI2246
aI2252
aI2239
aI2213
aI2200
aI2206
aI2211
aI2201
aI2176
aI2186
aI2181
aI2161
aI2165
aI2174
aI2164
aI2167
aI2166
aI2183
aI2219
aI2226
aI2221
aI2218
aI2224
aI2192
aI2166
aI2145
aI2176
aI2198
aI2208
aI2211
aI2226
aI2189
aI2193
aI2181
aI2221
aI2238
aI2240
aI2244
aI2249
aI2263
aI2247
aI2224
aI2197
aI2187
aI2194
aI2196
aI2204
aI2200
aI2208
aI2212
aI2213
aI2215
aI2192
aI2198
aI2209
aI2222
aI2231
aI2225
aI2204
aI2202
aI2199
aI2204
aI2208
aI2223
aI2249
aI2240
aI2226
aI2233
aI2250
aI2220
aI2206
aI2202
aI2214
aI2210
aI2217
aI2210
aI2210
aI2203
aI2188
aI2187
aI2208
aI2213
aI2198
aI2196
aI2188
aI2199
aI2195
aI2193
aI2198
aI2205
aI2216
aI2209
aI2209
aI2223
aI2219
aI2213
aI2225
aI2227
aI2251
aI0
aI0
aI0
aI0
aI0
aI0
aI0
aI0
aI0
aI0
aI0
aI0
aI0
aI0
aI0
aI0
aI0
aI0
aI0
aI0
aI0
aI0
aI0
aI0
aI0
aI0
aI0
aI0
aI0
aI0
aI0
aI0
aI0
aI0
aI0
aI0
aI0
aI0
aI0
aI0
aI0
aI0
aI0
aI0
aI0
aI0
aI0
aI0
aI0
aI0
aI0
aI0
aI0
aI0
aI0
aI0
aI0
aI0
aI0
aI0
aI0
aI0
aI0
aI0
aI0
aI0
aI0
aI0
aI0
aI0
aI0
aI0
aI0
aI0
aI0
aI0
aI0
aI0
aI0
aI0
aI0
aI0
aI0
aI0
aI0
aI0
aI0
aI0
aI0
aI0
aI0
aI0
aI0
aI0
aI0
aI0
aI0
aI0
aI0
aI0
aI0
aI0
aI0
aI0
aI0
aI0
aI0
aI0
aI0
aI0
aI0
aI0
aI0
aI0
aI0
aI0
aI0
aI0
aI0
aI0
aI0
aI0
aI0
aI0
aI0
aI0
aI0
aI0
aI0
aI0
aI0
aI0
aI0
aI0
aI0
aI0
aI0
aI0
aI0
aI0
aI0
aI0
aI0
aI0
aI0
aI0
aI0
aI0
aI0
aI0
aI0
aI0
aI0
aI0
aI0
aI0
aI0
aI0
aI0
aI0
aI0
aI0
aI0
aI0
aI0
aI0
aI0
aI0
aI0
aI0
aI0
aI0
aI0
aI0
aI0
aI0
aI0
aI0
aI0
aI0
aI0
aI0
aI0
aI0
aI0
aI0
aI0
aI0
aI0
aI0
aI0
aI0
aI0
aI0
aI0
aI0
aI0
aI0
aI0
aI0
aI0
aI0
aI0
aI0
aI0
aI0
aI0
aI0
aI0
aI0
aI0
aI0
aI0
aI0
aI0
aI0
aI0
aI0
aI0
aI0
aI0
aI0
aI0
aI0
aI0
aI0
aI0
aI0
aI0
aI0
aI0
aI0
aI0
aI0
aI0
aI0
aI0
aI0
aI0
aI0
aI0
aI0
aI0
aI0
aI0
aI0
aI0
aI0
aI0
aI0
aI0
aI0
aI0
aI0
aI0
aI0
aI0
aI0
aI0
aI0
aI0
aI0
aI0
aI0
aI0
aI0
aI0
aI0
aI0
aI0
aI0
aI0
aI0
aI0
aI0
aI0
aI0
aI0
aI0
aI0
aI0
aI0
aI0
aI0
aI0
aI0
aI0
aI0
aI0
aI0
aI0
aI0
aI0
aI0
aI0
aI0
aI0
aI0
aI0
aI0
aI0
aI0
aI0
aI0
aI0
aI0
aI0
aI0
aI0
aI0
aI0
aI0
aI0
aI0
aI0
aI0
aI0
aI0
aI0
aI0
aI0
aI0
aI0
aI0
aI0
aI0
aI0
aI0
aI0
aI0
aI0
aI0
aI0
aI0
aI0
aI0
aI0
aI0
aI0
aI0
aI0
aI0
aI0
aI0
aI0
aI0
aI0
aI0
aI0
aI0
aI0
aI0
aI0
aI0
aI0
aI0
aI0
aI0
aI0
aI0
aI0
aI0
aI0
aI0
aI0
aI0
aI0
aI0
aI0
aI0
aI0
aI0
aI0
aI0
aI0
aI0
aI0
aI0
aI0
aI0
aI0
aI0
aI0
aI0
aI0
aI0
aI0
aI0
aI0
aI0
aI0
aI0
aI0
aI0
aI0
aI0
aI0
aI0
aI0
aI0
aI0
aI0
aI0
aI0
aI0
aI0
aI0
aI0
aI0
aI0
aI0
aI0
aI0
aI0
aI0
aI0
aI0
aI0
aI0
aI0
aI0
aI0
aI0
aI0
aI0
aI0
aI0
aI0
aI0
aI0
aI0
aI0
aI0
aI0
aI0
aI0
aI0
aI0
aI0
aI0
aI0
aI0
aI0
aI0
aI0
aI0
aI0
aI0
aI0
aI0
aI0
aI0
aI0
aI0
aI0
aI0
aI0
aI0
aI0
aI0
aI0
aI0
aI0
aI0
aI0
aI0
aI0
aI0
aI0
aI0
aI0
aI0
aI0
aI0
aI0
aI0
aI0
aI0
aI0
aI0
aI0
aI0
aI0
aI0
aI0
aI0
aI0
aI0
aI0
aI0
aI0
aI0
aI0
aI0
aI0
aI0
aI0
aI0
aI0
aI0
aI0
aI0
aI0
aI0
aI0
aI0
aI0
aI0
aI0
aI0
aI0
aI0
aI0
aI0
aI0
aI0
aI0
aI0
aI0
aI0
aI0
aI0
aI0
aI0
aI0
aI0
aI0
aI0
aI0
aI0
aI0
aI0
aI0
aI0
aI0
aI0
aI0
aI0
aI0
aI0
aI0
aI0
aI0
aI0
aI0
aI0
aI0
aI0
aI0
aI0
aI0
aI0
aI0
aI0
aI0
aI0
aI0
aI0
aI0
aI0
aI0
aI0
aI0
aI0
aI0
aI0
aI0
aI0
aI0
aI0
aI0
aI0
aI0
aI0
aI0
aI0
aI0
aI0
aI0
aI0
aI0
aI0
aI0
aI0
aI0
aI0
aI0
aI0
aI0
aI0
aI0
aI0
aI0
aI0
aI0
aI0
aI0
aI0
aI0
aI0
aI0
aI0
aI0
aI0
aI0
aI0
aI0
aI0
aI0
aI0
aI0
aI0
aI0
aI0
aI0
aI0
aI0
aI0
aI0
aI0
aI0
aI0
aI0
aI0
aI0
aI0
aI0
aI0
aI0
aI0
aI0
aI0
aI0
aI0
aI0
aI0
aI0
aI0
aI0
aI0
aI0
aI0
aI0
aI0
aI0
aI0
aI0
aI0
aI0
aI0
aI0
aI0
aI0
aI0
aI0
aI0
aI0
aI0
aI0
aI0
aI0
aI0
aI0
aI0
aI0
aI0
aI0
aI0
aI0
aI0
aI0
aI0
aI0
aI0
aI0
aI0
aI0
aI0
aI0
aI0
aI0
aI0
aI0
aI0
aI0
aI0
aI0
aI0
aI0
aI0
aI0
aI0
aI0
aI0
aI0
aI0
aI0
aI0
aI0
aI0
aI0
aI0
aI0
aI0
aI0
aI0
aI0
aI0
aI0
aI0
aI0
aI0
aI0
aI0
aI0
aI0
aI0
aI0
aI0
aI0
aI0
aI0
aI0
aI0
aI0
aI0
aI0
aI0
aI0
aI0
aI0
aI0
aI0
aI0
aI0
aI0
aI0
aI0
aI0
aI0
aI0
aI0
aI0
aI0
aI0
aI0
aI0
aI0
aI0
aI0
aI0
aI0
aI0
aI0
aI0
aI0
aI0
aI0
aI0
aI0
aI0
aI0
aI0
aI0
aI0
aI0
aI0
aI0
aI0
aI0
aI0
aI0
aI0
aI0
aI0
aI0
aI0
aI0
aI0
aI0
aI0
aI0
aI0
aI0
aI0
aI0
aI0
aI0
aI0
aI0
aI0
aI0
aI0
aI0
aI0
aI0
aI0
aI0
aI0
aI0
aI0
aI0
aI0
aI0
aI0
aI0
aI0
aI0
aI0
aI0
aI0
aI0
aI0
aI0
aI0
aI0
aI0
aI0
aI0
aI0
aI0
aI0
aI0
aI0
aI0
aI0
aI0
aI0
aI0
aI0
aI0
aI0
aI0
aI0
aI0
aI0
aI0
aI0
aI0
aI0
aI0
aI0
aI0
aI0
aI0
aI0
aI0
aI0
aI0
aI0
aI0
aI0
aI0
aI0
aI0
aI0
aI0
aI0
aI0
aI0
aI0
aI0
aI0
aI0
aI0
aI0
aI0
aI0
aI0
aI0
aI0
aI0
aI0
aI0
aI0
aI0
aI0
aI0
aI0
aI0
aI0
aI0
aI0
aI0
aI0
aI0
aI0
aI0
aI0
aI0
aI0
aI0
aI0
aI0
aI0
aI0
aI0
aI0
aI0
aI0
aI0
aI0
aI0
aI0
aI0
aI0
aI0
aI0
aI0
aI0
aI0
aI0
aI0
aI0
aI0
aI0
aI0
aI0
aI0
aI0
aI0
aI0
aI0
aI0
aI0
aI0
aI0
aI0
aI0
aI0
aI0
aI0
aI0
aI0
aI0
aI0
aI0
aI0
aI0
aI0
aI0
aI0
aI0
aI0
aI0
aI0
aI0
aI0
aI0
aI0
aI0
aI0
aI0
aI0
aI0
aI0
aI0
aI0
aI0
aI0
aI0
aI0
aI0
aI0
aI0
aI0
aI0
aI0
aI0
aI0
aI0
aI0
aI0
aI0
aI0
aI0
aI0
aI0
aI0
aI0
aI0
aI0
aI0
aI0
aI0
aI0
aI0
aI0
aI0
aI0
aI0
aI0
aI0
aI0
aI0
aI0
aI0
aI0
aI0
aI0
aI0
aI0
aI0
aI0
aI0
aI0
aI0
aI0
aI0
aI0
aI0
aI0
aI0
aI0
aI0
aI0
aI0
aI0
aI0
aI0
aI0
aI0
aI0
aI0
aI0
aI0
aI0
aI0
aI0
aI0
aI0
aI0
aI0
aI0
aI0
aI0
aI0
aI0
aI0
aI0
aI0
aI0
aI0
aI0
aI0
aI0
aI0
aI0
aI0
aI0
aI0
aI0
aI0
aI0
aI0
aI0
aI0
aI0
aI0
aI0
aI0
aI0
aI0
aI0
aI0
aI0
aI0
aI0
aI0
aI0
aI0
aI0
aI0
aI0
aI0
aI0
aI0
aI0
aI0
aI0
aI0
aI0
aI0
aI0
aI0
aI0
aI0
aI0
aI0
aI0
aI0
aI0
aI0
aI0
aI0
aI0
aI0
aI0
aI0
aI0
aI0
aI0
aI0
aI0
aI0
aI0
aI0
aI0
aI0
aI0
aI0
aI0
aI0
aI0
aI0
aI0
aI0
aI0
aI0
aI0
aI0
aI0
aI0
aI0
aI0
aI0
aI0
aI0
aI0
aI0
aI0
aI0
aI0
aI0
aI0
aI0
aI0
aI0
aI0
aI0
aI0
aI0
aI0
aI0
aI0
aI0
aI0
aI0
aI0
aI0
aI0
aI0
aI0
aI0
aI0
aI0
aI0
aI0
aI0
aI0
aI0
aI0
aI0
aI0
aI0
aI0
aI0
aI0
aI0
aI0
aI0
aI0
aI0
aI0
aI0
aI0
aI0
aI0
aI0
aI0
aI0
aI0
aI0
aI0
aI0
aI0
aI0
aI0
aI0
aI0
aI0
aI0
aI0
aI0
aI0
aI0
aI0
aI0
aI0
aI0
aI0
aI0
aI0
aI0
aI0
aI0
aI0
aI0
aI0
aI0
aI0
aI0
aI0
aI0
aI0
aI0
aI0
aI0
aI0
aI0
aI0
aI0
aI0
aI0
aI0
aI0
aI0
aI0
aI0
aI0
aI0
aI0
aI0
aI0
aI0
aI0
aI0
aI0
aI0
aI0
aI0
aI0
aI0
aI0
aI0
aI0
aI0
aI0
aI0
aI0
aI0
aI0
aI0
aI0
aI0
aI0
aI0
aI0
aI0
aI0
aI0
aI0
aI0
aI0
aI0
aI0
aI0
aI0
aI0
aI0
aI0
aI0
aI0
aI0
aI0
aI0
aI0
aI0
aI0
aI0
aI0
aI0
aI0
aI0
aI0
aI0
aI0
aI0
aI0
aI0
aI0
aI0
aI0
aI0
aI0
aI0
aI0
aI0
aI0
aI0
aI0
aI0
aI0
aI0
aI0
aI0
aI0
aI0
aI0
aI0
aI0
aI0
aI0
aI0
aI0
aI0
aI0
aI0
aI0
aI0
aI0
aI0
aI0
aI0
aI0
aI0
aI0
aI0
aI0
aI0
aI0
aI0
aI0
aI0
aI0
aI0
aI0
aI0
aI0
aI0
aI0
aI0
aI0
aI0
aI0
aI0
aI0
aI0
aI0
aI0
aI0
aI0
aI0
aI0
aI0
aI0
aI0
aI0
aI0
aI0
aI0
aI0
aI0
aI0
aI0
aI0
aI0
aI0
aI0
aI0
aI0
aI0
aI0
aI0
aI0
aI0
aI0
aI0
aI0
aI0
aI0
aI0
aI0
aI0
aI0
aI0
aI0
aI0
aI0
aI0
aI0
aI0
aI0
aI0
aI0
aI0
aI0
aI0
aI0
aI0
aI0
aI0
aI0
aI0
aI0
aI0
aI0
aI0
aI0
aI0
aI0
aI0
aI0
aI0
aI0
aI0
aI0
aI0
aI0
aI0
aI0
aI0
aI0
aI0
aI0
aI0
aI0
aI0
aI0
aI0
aI0
aI0
aI0
aI0
aI0
aI0
aI0
aI0
aI0
aI0
aI0
aI0
aI0
aI0
aI0
aI0
aI0
aI0
aI0
aI0
aI0
aI0
aI0
aI0
aI0
aI0
aI0
aI0
aI0
aI0
aI0
aI0
aI0
aI0
aI0
aI0
aI0
aI0
aI0
aI0
aI0
aI0
aI0
aI0
aI0
aI0
aI0
aI0
aI0
aI0
aI0
aI0
aI0
aI0
aI0
aI0
aI0
aI0
aI0
aI0
aI0
aI0
aI0
aI0
aI0
aI0
aI0
aI0
aI0
aI0
aI0
aI0
aI0
aI0
aI0
aI0
aI0
aI0
aI0
aI0
aI0
aI0
aI0
aI0
aI0
aI0
aI0
aI0
aI0
aI0
aI0
aI0
aI0
aI0
aI0
aI0
aI0
aI0
aI0
aI0
aI0
aI0
aI0
aI0
aI0
aI0
aI0
aI0
aI0
aI0
aI0
aI0
aI0
aI0
aI0
aI0
aI0
aI0
aI0
aI0
aI0
aI0
aI0
aI0
aI0
aI0
aI0
aI0
aI0
aI0
aI0
aI0
aI0
aI0
aI0
aI0
aI0
aI0
aI0
aI0
aI0
aI0
aI0
aI0
aI0
aI0
aI0
aI0
aI0
aI0
aI0
aI0
aI0
aI0
aI0
aI0
aI0
aI0
aI0
aI0
aI0
aI0
aI0
aI0
aI0
aI0
aI0
aI0
aI0
aI0
aI0
aI0
aI0
aI0
aI0
aI0
aI0
aI0
aI0
aI0
aI0
aI0
aI0
aI0
aI0
aI0
aI0
aI0
aI0
aI0
aI0
aI0
aI0
aI0
aI0
aI0
aI0
aI0
aI0
aI0
aI0
aI0
aI0
aI0
aI0
aI0
aI0
aI0
aI0
aI0
aI0
aI0
aI0
aI0
aI0
aI0
aI0
aI0
aI0
aI0
aI0
aI0
aI0
aI0
aI0
aI0
aI0
aI0
aI0
aI0
aI0
aI0
aI0
aI0
aI0
aI0
aI0
aI0
aI0
aI0
aI0
aI0
aI0
aI0
aI0
aI0
aI0
aI0
aI0
aI0
aI0
aI0
aI0
aI0
aI0
aI0
aI0
aI0
aI0
aI0
aI0
aI0
aI0
aI0
aI0
aI0
aI0
aI0
aI0
aI0
aI0
aI0
aI0
aI0
aI0
aI0
aI0
aI0
aI0
aI0
aI0
aI0
aI0
aI0
aI0
aI0
aI0
aI0
aI0
aI0
aI0
aI0
aI0
aI0
aI0
aI0
aI0
aI0
aI0
aI0
aI0
aI0
aI0
aI0
aI0
aI0
aI0
aI0
aI0
aI0
aI0
aI0
aI0
aI0
aI0
aI0
aI0
aI0
aI0
aI0
aI0
aI0
aI0
aI0
aI0
aI0
aI0
aI0
aI0
aI0
aI0
aI0
aI0
aI0
aI0
aI0
aI0
aI0
aI0
aI0
aI0
aI0
aI0
aI0
aI0
aI0
aI0
aI0
aI0
aI0
aI0
aI0
aI0
aI0
aI0
aI0
aI0
aI0
aI0
aI0
aI0
aI0
aI0
aI0
aI0
aI0
aI0
aI0
aI0
aI0
aI0
aI0
aI0
aI0
aI0
aI0
aI0
aI0
aI0
aI0
aI0
aI0
aI0
aI0
aI0
aI0
aI0
aI0
aI0
aI0
aI0
aI0
aI0
aI0
aI0
aI0
aI0
aI0
aI0
aI0
aI0
aI0
aI0
aI0
aI0
aI0
aI0
aI0
aI0
aI0
aI0
aI0
aI0
aI0
aI0
aI0
aI0
aI0
aI0
aI0
aI0
aI0
aI0
aI0
aI0
aI0
aI0
aI0
aI0
aI0
aI0
aI0
aI0
aI0
aI0
aI0
aI0
aI0
aI0
aI0
aI0
aI0
aI0
aI0
aI0
aI0
aI0
aI0
aI0
aI0
aI0
aI0
aI0
aI0
aI0
aI0
aI0
aI0
aI0
aI0
aI0
aI0
aI0
aI0
aI0
aI0
aI0
aI0
aI0
aI0
aI0
aI0
aI0
aI0
aI0
aI0
aI0
aI0
aI0
aI0
aI0
aI0
aI0
aI0
aI0
aI0
aI0
aI0
aI0
aI0
aI0
aI0
aI0
aI0
aI0
aI0
aI0
aI0
aI0
aI0
aI0
aI0
aI0
aI0
aI0
aI0
aI0
aI0
aI0
aI0
aI0
aI0
aI0
aI0
aI0
aI0
aI0
aI0
aI0
aI0
aI0
aI0
aI0
aI0
aI0
aI0
aI0
aI0
aI0
aI0
aI0
aI0
aI0
aI0
aI0
aI0
aI0
aI0
aI0
aI0
aI0
aI0
aI0
aI0
aI0
aI0
aI0
aI0
aI0
aI0
aI0
aI0
aI0
aI0
aI0
aI0
aI0
aI0
aI0
aI0
aI0
aI0
aI0
aI0
aI0
aI0
aI0
aI0
aI0
aI0
aI0
aI0
aI0
aI0
aI0
aI0
aI0
aI0
aI0
aI0
aI0
aI0
aI0
aI0
aI0
aI0
aI0
aI0
aI0
aI0
aI0
aI0
aI0
aI0
aI0
aI0
aI0
aI0
aI0
aI0
aI0
aI0
aI0
aI0
aI0
aI0
aI0
aI0
aI0
aI0
aI0
aI0
aI0
aI0
aI0
aI0
aI0
aI0
aI0
aI0
aI0
aI0
aI0
aI0
aI0
aI0
aI0
aI0
aI0
aI0
aI0
aI0
aI0
aI0
aI0
aI0
aI0
aI0
aI0
aI0
aI0
aI0
aI0
aI0
aI0
aI0
aI0
aI0
aI0
aI0
aI0
aI0
aI0
aI0
aI0
aI0
aI0
aI0
aI0
aI0
aI0
aI0
aI0
aI0
aI0
aI0
aI0
aI0
aI0
aI0
aI0
aI0
aI0
aI0
aI0
aI0
aI0
aI0
aI0
aI0
aI0
aI0
aI0
aI0
aI0
aI0
aI0
aI0
aI0
aI0
aI0
aI0
aI0
aI0
aI0
aI0
aI0
aI0
aI0
aI0
aI0
aI0
aI0
aI0
aI0
aI0
aI0
aI0
aI0
aI0
aI0
aI0
aI0
aI0
aI0
aI0
aI0
aI0
aI0
aI0
aI0
aI0
aI0
aI0
aI0
aI0
aI0
aI0
aI0
aI0
aI0
aI0
aI0
aI0
aI0
aI0
aI0
aI0
aI0
aI0
aI0
aI0
aI0
aI0
aI0
aI0
aI0
aI0
aI0
aI0
aI0
aI0
aI0
aI0
aI0
aI0
aI0
aI0
aI0
aI0
aI0
aI0
aI0
aI0
aI0
aI0
aI0
aI0
aI0
aI0
aI0
aI0
aI0
aI0
aI0
aI0
aI0
aI0
aI0
aI0
aI0
aI0
aI0
aI0
aI0
aI0
aI0
aI0
aI0
aI0
aI0
aI0
aI0
aI0
aI0
aI0
aI0
aI0
aI0
aI0
aI0
aI0
aI0
aI0
aI0
aI0
aI0
aI0
aI0
aI0
aI0
aI0
aI0
aI0
aI0
aI0
aI0
aI0
aI0
aI0
aI0
aI0
aI0
aI0
aI0
aI0
aI0
aI0
aI0
aI0
aI0
aI0
aI0
aI0
aI0
aI0
aI0
aI0
aI0
aI0
aI0
aI0
aI0
aI0
aI0
aI0
aI0
aI0
aI0
aI0
aI0
aI0
aI0
aI0
aI0
aI0
aI0
aI0
aI0
aI0
aI0
aI0
aI0
aI0
aI0
aI0
aI0
aI0
aI0
aI0
aI0
aI0
aI0
aI0
aI0
aI0
aI0
aI0
aI0
aI0
aI0
aI0
aI0
aI0
aI0
aI0
aI0
aI0
aI0
aI0
aI0
aI0
aI0
aI0
aI0
aI0
aI0
aI0
aI0
aI0
aI0
aI0
aI0
aI0
aI0
aI0
aI0
aI0
aI0
aI0
aI0
aI0
aI0
aI0
aI0
aI0
aI0
aI0
aI0
aI0
aI0
aI0
aI0
aI0
aI0
aI0
aI0
aI0
aI0
aI0
aI0
aI0
aI0
aI0
aI0
aI0
aI0
aI0
aI0
aI0
aI0
aI0
aI0
aI0
aI0
aI0
aI0
aI0
aI0
aI0
aI0
aI0
aI0
aI0
aI0
aI0
aI0
aI0
aI0
aI0
aI0
aI0
aI0
aI0
aI0
aI0
aI0
aI0
aI0
aI0
aI0
aI0
aI0
aI0
aI0
aI0
aI0
aI0
aI0
aI0
aI0
aI0
aI0
aI0
aI0
aI0
aI0
aI0
aI0
aI0
aI0
aI0
aI0
aI0
aI0
aI0
aI0
aI0
aI0
aI0
aI0
aI0
aI0
aI0
aI0
aI0
aI0
aI0
aI0
aI0
aI0
aI0
aI0
aI0
aI0
aI0
aI0
aI0
aI0
aI0
aI0
aI0
aI0
aI0
aI0
aI0
aI0
aI0
aI0
aI0
aI0
aI0
aI0
aI0
aI0
aI0
aI0
aI0
aI0
aI0
aI0
aI0
aI0
aI0
aI0
aI0
aI0
aI0
aI0
aI0
aI0
aI0
aI0
aI0
aI0
aI0
aI0
aI0
aI0
aI0
aI0
aI0
aI0
aI0
aI0
aI0
aI0
aI0
aI0
aI0
aI0
aI0
aI0
aI0
aI0
aI0
aI0
aI0
aI0
aI0
aI0
aI0
aI0
aI0
aI0
aI0
aI0
aI0
aI0
aI0
aI0
aI0
aI0
aI0
aI0
aI0
aI0
aI0
aI0
aI0
aI0
aI0
aI0
aI0
aI0
aI0
aI0
aI0
aI0
aI0
aI0
aI0
aI0
aI0
aI0
aI0
aI0
aI0
aI0
aI0
aI0
aI0
aI0
aI0
aI0
aI0
aI0
aI0
aI0
aI0
aI0
aI0
aI0
aI0
aI0
aI0
aI0
aI0
aI0
aI0
aI0
aI0
aI0
aI0
aI0
aI0
aI0
aI0
aI0
aI0
aI0
aI0
aI0
aI0
aI0
aI0
aI0
aI0
aI0
aI0
aI0
aI0
aI0
aI0
aI0
aI0
aI0
aI0
aI0
aI0
aI0
aI0
aI0
aI0
aI0
aI0
aI0
aI0
aI0
aI0
aI0
aI0
aI0
aI0
aI0
aI0
aI0
aI0
aI0
aI0
aI0
aI0
aI0
aI0
aI0
aI0
aI0
aI0
aI0
aI0
aI0
aI0
aI0
aI0
aI0
aI0
aI0
aI0
aI0
aI0
aI0
aI0
aI0
aI0
aI0
aI0
aI0
aI0
aI0
aI0
aI0
aI0
aI0
aI0
aI0
aI0
aI0
aI0
aI0
aI0
aI0
aI0
aI0
aI0
aI0
aI0
aI0
aI0
aI0
aI0
aI0
aI0
aI0
aI0
aI0
aI0
aI0
aI0
aI0
aI0
aI0
aI0
aI0
aI0
aI0
aI0
aI0
aI0
aI0
aI0
aI0
aI0
aI0
aI0
aI0
aI0
aI0
aI0
aI0
aI0
aI0
aI0
aI0
aI0
aI0
aI0
aI0
aI0
aI0
aI0
aI0
aI0
aI0
aI0
aI0
aI0
aI0
aI0
aI0
aI0
aI0
aI0
aI0
aI0
aI0
aI0
aI0
aI0
aI0
aI0
aI0
aI0
aI0
aI0
aI0
aI0
aI0
aI0
aI0
aI0
aI0
aI0
aI0
aI0
aI0
aI0
aI0
aI0
aI0
aI0
aI0
aI0
aI0
aI0
aI0
aI0
aI0
aI0
aI0
aI0
aI0
aI0
aI0
aI0
aI0
aI0
aI0
aI0
aI0
aI0
aI0
aI0
aI0
aI0
aI0
aI0
aI0
aI0
aI0
aI0
aI0
aI0
aI0
aI0
aI0
aI0
aI0
aI0
aI0
aI0
aI0
aI0
aI0
aI0
aI0
aI0
aI0
aI0
aI0
aI0
aI0
aI0
aI0
aI0
aI0
aI0
aI0
aI0
aI0
aI0
aI0
aI0
aI0
aI0
aI0
aI0
aI0
aI0
aI0
aI0
aI0
aI0
aI0
aI0
aI0
aI0
aI0
aI0
aI0
aI0
aI0
aI0
aI0
aI0
aI0
aI0
aI0
aI0
aI0
aI0
aI0
aI0
aI0
aI0
aI0
aI0
aI0
aI0
aI0
aI0
aI0
aI0
aI0
aI0
aI0
aI0
aI0
aI0
aI0
aI0
aI0
aI0
aI0
aI0
aI0
aI0
aI0
aI0
aI0
aI0
aI0
aI0
aI0
aI0
aI0
aI0
aI0
aI0
aI0
aI0
aI0
aI0
aI0
aI0
aI0
aI0
aI0
aI0
aI0
aI0
aI0
aI0
aI0
aI0
aI0
aI0
aI0
aI0
aI0
aI0
aI0
aI0
aI0
aI0
aI0
aI0
aI0
aI0
aI0
aI0
aI0
aI0
aI0
aI0
aI0
aI0
aI0
aI0
aI0
aI0
aI0
aI0
aI0
aI0
aI0
aI0
aI0
aI0
aI0
aI0
aI0
aI0
aI0
aI0
aI0
aI0
aI0
aI0
aI0
aI0
aI0
aI0
aI0
aI0
aI0
aI0
aI0
aI0
aI0
aI0
aI0
aI0
aI0
aI0
aI0
aI0
aI0
aI0
aI0
aI0
aI0
aI0
aI0
aI0
aI0
aI0
aI0
aI0
aI0
aI0
aI0
aI0
aI0
aI0
aI0
aI0
aI0
aI0
aI0
aI0
aI0
aI0
aI0
aI0
aI0
aI0
aI0
aI0
aI0
aI0
aI0
aI0
aI0
aI0
aI0
aI0
aI0
aI0
aI0
aI0
aI0
aI0
aI0
aI0
aI0
aI0
aI0
aI0
aI0
aI0
aI0
aI0
aI0
aI0
aI0
aI0
aI0
aI0
aI0
aI0
aI0
aI0
aI0
aI0
aI0
aI0
aI0
aI0
aI0
aI0
aI0
aI0
aI0
aI0
aI0
aI0
aI0
aI0
aI0
aI0
aI0
aI0
aI0
aI0
aI0
aI0
aI0
aI0
aI0
aI0
aI0
aI0
aI0
aI0
aI0
aI0
aI0
aI0
aI0
aI0
aI0
aI0
aI0
aI0
aI0
aI0
aI0
aI0
aI0
aI0
aI0
aI0
aI0
aI0
aI0
aI0
aI0
aI0
aI0
aI0
aI0
aI0
aI0
aI0
aI0
aI0
aI0
aI0
aI0
aI0
aI0
aI0
aI0
aI0
aI0
aI0
aI0
aI0
aI0
aI0
aI0
aI0
aI0
aI0
aI0
aI0
aI0
aI0
aI0
aI0
aI0
aI0
aI0
aI0
aI0
aI0
aI0
aI0
aI0
aI0
aI0
aI0
aI0
aI0
aI0
aI0
aI0
aI0
aI0
aI0
aI0
aI0
aI0
aI0
aI0
aI0
aI0
aI0
aI0
aI0
aI0
aI0
aI0
aI0
aI0
aI0
aI0
aI0
aI0
aI0
aI0
aI0
aI0
aI0
aI0
aI0
aI0
aI0
aI0
aI0
aI0
aI0
aI0
aI0
aI0
aI0
aI0
aI0
aI0
aI0
aI0
aI0
aI0
aI0
aI0
aI0
aI0
aI0
aI0
aI0
aI0
aI0
aI0
aI0
aI0
aI0
aI0
aI0
aI0
aI0
aI0
aI0
aI0
aI0
aI0
aI0
aI0
aI0
aI0
aI0
aI0
aI0
aI0
aI0
aI0
aI0
aI0
aI0
aI0
aI0
aI0
aI0
aI0
aI0
aI0
aI0
aI0
aI0
aI0
aI0
aI0
aI0
aI0
aI0
aI0
aI0
aI0
aI0
aI0
aI0
aI0
aI0
aI0
aI0
aI0
aI0
aI0
aI0
aI0
aI0
aI0
aI0
aI0
aI0
aI0
aI0
aI0
aI0
aI0
aI0
aI0
aI0
aI0
aI0
aI0
aI0
aI0
aI0
aI0
aI0
aI0
aI0
aI0
aI0
aI0
aI0
aI0
aI0
aI0
aI0
aI0
aI0
aI0
aI0
aI0
aI0
aI0
aI0
aI0
aI0
aI0
aI0
aI0
aI0
aI0
aI0
aI0
aI0
aI0
aI0
aI0
aI0
aI0
aI0
aI0
aI0
aI0
aI0
aI0
aI0
aI0
aI0
aI0
aI0
aI0
aI0
aI0
aI0
aI0
aI0
aI0
aI0
aI0
aI0
aI0
aI0
aI0
aI0
aI0
aI0
aI0
aI0
aI0
aI0
aI0
aI0
aI0
aI0
aI0
aI0
aI0
aI0
aI0
aI0
aI0
aI0
aI0
aI0
aI0
aI0
aI0
aI0
aI0
aI0
aI0
aI0
aI0
aI0
aI0
aI0
aI0
aI0
aI0
aI0
aI0
aI0
aI0
aI0
aI0
aI0
aI0
aI0
aI0
aI0
aI0
aI0
aI0
aI0
aI0
aI0
aI0
aI0
aI0
aI0
aI0
aI0
aI0
aI0
aI0
aI0
aI0
aI0
aI0
aI0
aI0
aI0
aI0
aI0
aI0
aI0
aI0
aI0
aI0
aI0
aI0
aI0
aI0
aI0
aI0
aI0
aI0
aI0
aI0
aI0
aI0
aI0
aI0
aI0
aI0
aI0
aI0
aI0
aI0
aI0
aI0
aI0
aI0
aI0
aI0
aI0
aI0
aI0
aI0
aI0
aI0
aI0
aI0
aI0
aI0
aI0
aI0
aI0
aI0
aI0
aI0
aI0
aI0
aI0
aI0
aI0
aI0
aI0
aI0
aI0
aI0
aI0
aI0
aI0
aI0
aI0
aI0
aI0
aI0
aI0
aI0
aI0
aI0
aI0
aI0
aI0
aI0
aI0
aI0
aI0
aI0
aI0
aI0
aI0
aI0
aI0
aI0
aI0
aI0
aI0
aI0
aI0
aI0
aI0
aI0
aI0
aI0
aI0
aI0
aI0
aI0
aI0
aI0
aI0
aI0
aI0
aI0
aI0
aI0
aI0
aI0
aI0
aI0
aI0
aI0
aI0
aI0
aI0
aI0
aI0
aI0
aI0
aI0
aI0
aI0
aI0
aI0
aI0
aI0
aI0
aI0
aI0
aI0
aI0
aI0
aI0
aI0
aI0
aI0
aI0
aI0
aI0
aI0
aI0
aI0
aI0
aI0
aI0
aI0
aI0
aI0
aI0
aI0
aI0
aI0
aI0
aI0
aI0
aI0
aI0
aI0
aI0
aI0
aI0
aI0
aI0
aI0
aI0
aI0
aI0
aI0
aI0
aI0
aI0
aI0
aI0
aI0
aI0
aI0
aI0
aI0
aI0
aI0
aI0
aI0
aI0
aI0
aI0
aI0
aI0
aI0
aI0
aI0
aI0
aI0
aI0
aI0
aI0
aI0
aI0
aI0
aI0
aI0
aI0
aI0
aI0
aI0
aI0
aI0
aI0
aI0
aI0
aI0
aI0
aI0
aI0
aI0
aI0
aI0
aI0
aI0
aI0
aI0
aI0
aI0
aI0
aI0
aI0
aI0
aI0
aI0
aI0
aI0
aI0
aI0
aI0
aI0
aI0
aI0
aI0
aI0
aI0
aI0
aI0
aI0
aI0
aI0
aI0
aI0
aI0
aI0
aI0
aI0
aI0
aI0
aI0
aI0
aI0
aI0
aI0
aI0
aI0
aI0
aI0
aI0
aI0
aI0
aI0
aI0
aI0
aI0
aI0
aI0
aI0
aI0
aI0
aI0
aI0
aI0
aI0
aI0
aI0
aI0
aI0
aI0
aI0
aI0
aI0
aI0
aI0
aI0
aI0
aI0
aI0
aI0
aI0
aI0
aI0
aI0
aI0
aI0
aI0
aI0
aI0
aI0
aI0
aI0
aI0
aI0
aI0
aI0
aI0
aI0
aI0
aI0
aI0
aI0
aI0
aI0
aI0
aI0
aI0
aI0
aI0
aI0
aI0
aI0
aI0
aI0
aI0
aI0
aI0
aI0
aI0
aI0
aI0
aI0
aI0
aI0
aI0
aI0
aI0
aI0
aI0
aI0
aI0
aI0
aI0
aI0
aI0
aI0
aI0
aI0
aI0
aI0
aI0
aI0
aI0
aI0
aI0
aI0
aI0
aI0
aI0
aI0
aI0
aI0
aI0
aI0
aI0
aI0
aI0
aI0
aI0
aI0
aI0
aI0
aI0
aI0
aI0
aI0
aI0
aI0
aI0
aI0
aI0
aI0
aI0
aI0
aI0
aI0
aI0
aI0
aI0
aI0
aI0
aI0
aI0
aI0
aI0
aI0
aI0
aI0
aI0
aI0
aI0
aI0
aI0
aI0
aI0
aI0
aI0
aI0
aI0
aI0
aI0
aI0
aI0
aI0
aI0
aI0
aI0
aI0
aI0
aI0
aI0
aI0
aI0
aI0
aI0
aI0
aI0
aI0
aI0
aI0
aI0
aI0
aI0
aI0
aI0
aI0
aI0
aI0
aI0
aI0
aI0
aI0
aI0
aI0
aI0
aI0
aI0
aI0
aI0
aI0
aI0
aI0
aI0
aI0
aI0
aI0
aI0
aI0
aI0
aI0
aI0
aI0
aI0
aI0
aI0
aI0
aI0
aI0
aI0
aI0
aI0
aI0
aI0
aI0
aI0
aI0
aI0
aI0
aI0
aI0
aI0
aI0
aI0
aI0
aI0
aI0
aI0
aI0
aI0
aI0
aI0
aI0
aI0
aI0
aI0
aI0
aI0
aI0
aI0
aI0
aI0
aI0
aI0
aI0
aI0
aI0
aI0
aI0
aI0
aI0
aI0
aI0
aI0
aI0
aI0
aI0
aI0
aI0
aI0
aI0
aI0
aI0
aI0
aI0
aI0
aI0
aI0
aI0
aI0
aI0
aI0
aI0
aI0
aI0
aI0
aI0
aI0
aI0
aI0
aI0
aI0
aI0
aI0
aI0
aI0
aI0
aI0
aI0
aI0
aI0
aI0
aI0
aI0
aI0
aI0
aI0
aI0
aI0
aI0
aI0
aI0
aI0
aI0
aI0
aI0
aI0
aI0
aI0
aI0
aI0
aI0
aI0
aI0
aI0
aI0
aI0
aI0
aI0
aI0
aI0
aI0
aI0
aI0
aI0
aI0
aI0
aI0
aI0
aI0
aI0
aI0
aI0
aI0
aI0
aI0
aI0
aI0
aI0
aI0
aI0
aI0
aI0
aI0
aI0
aI0
aI0
aI0
aI0
aI0
aI0
aI0
aI0
aI0
aI0
aI0
aI0
aI0
aI0
aI0
aI0
aI0
aI0
aI0
aI0
aI0
aI0
aI0
aI0
aI0
aI0
aI0
aI0
aI0
aI0
aI0
aI0
aI0
aI0
aI0
aI0
aI0
aI0
aI0
aI0
aI0
aI0
aI0
aI0
aI0
aI0
aI0
aI0
aI0
aI0
aI0
aI0
aI0
aI0
aI0
aI0
aI0
aI0
aI0
aI0
aI0
aI0
aI0
aI0
aI0
aI0
aI0
aI0
aI0
aI0
aI0
aI0
aI0
aI0
aI0
aI0
aI0
aI0
aI0
aI0
aI0
aI0
aI0
aI0
aI0
aI0
aI0
aI0
aI0
aI0
aI0
aI0
aI0
aI0
aI0
aI0
aI0
aI0
aI0
aI0
aI0
aI0
aI0
aI0
aI0
aI0
aI0
aI0
aI0
aI0
aI0
aI0
aI0
aI0
aI0
aI0
aI0
aI0
aI0
aI0
aI0
aI0
aI0
aI0
aI0
aI0
aI0
aI0
aI0
aI0
aI0
aI0
aI0
aI0
aI0
aI0
aI0
aI0
aI0
aI0
aI0
aI0
aI0
aI0
aI0
aI0
aI0
aI0
aI0
aI0
aI0
aI0
aI0
aI0
aI0
aI0
aI0
aI0
aI0
aI0
aI0
aI0
aI0
aI0
aI0
aI0
aI0
aI0
aI0
aI0
aI0
aI0
aI0
aI0
aI0
aI0
aI0
aI0
aI0
aI0
aI0
aI0
aI0
aI0
aI0
aI0
aI0
aI0
aI0
aI0
aI0
aI0
aI0
aI0
aI0
aI0
aI0
aI0
aI0
aI0
aI0
aI0
aI0
aI0
aI0
aI0
aI0
aI0
aI0
aI0
aI0
aI0
aI0
aI0
aI0
aI0
aI0
aI0
aI0
aI0
aI0
aI0
aI0
aI0
aI0
aI0
aI0
aI0
aI0
aI0
aI0
aI0
aI0
aI0
aI0
aI0
aI0
aI0
aI0
aI0
aI0
aI0
aI0
aI0
aI0
aI0
aI0
aI0
aI0
aI0
aI0
aI0
aI0
aI0
aI0
aI0
aI0
aI0
aI0
aI0
aI0
aI0
aI0
aI0
aI0
aI0
aI0
aI0
aI0
aI0
aI0
aI0
aI0
aI0
aI0
aI0
aI0
aI0
aI0
aI0
aI0
aI0
aI0
aI0
aI0
aI0
aI0
aI0
aI0
aI0
aI0
aI0
aI0
aI0
aI0
aI0
aI0
aI0
aI0
aI0
aI0
aI0
aI0
aI0
aI0
aI0
aI0
aI0
aI0
aI0
aI0
aI0
aI0
aI0
aI0
aI0
aI0
aI0
aI0
aI0
aI0
aI0
aI0
aI0
aI0
aI0
aI0
aI0
aI0
aI0
aI0
aI0
aI0
aI0
aI0
aI0
aI0
aI0
aI0
aI0
aI0
aI0
aI0
aI0
aI0
aI0
aI0
aI0
aI0
aI0
aI0
aI0
aI0
aI0
aI0
aI0
aI0
aI0
aI0
aI0
aI0
aI0
aI0
aI0
aI0
aI0
aI0
aI0
aI0
aI0
aI0
aI0
aI0
aI0
aI0
aI0
aI0
aI0
aI0
aI0
aI0
aI0
aI0
aI0
aI0
aI0
aI0
aI0
aI0
aI0
aI0
aI0
aI0
aI0
aI0
aI0
aI0
aI0
aI0
aI0
aI0
aI0
aI0
aI0
aI0
aI0
aI0
aI0
aI0
aI0
aI0
aI0
aI0
aI0
aI0
aI0
aI0
aI0
aI0
aI0
aI0
aI0
aI0
aI0
aI0
aI0
aI0
aI0
aI0
aI0
aI0
aI0
aI0
aI0
aI0
aI0
aI0
aI0
aI0
aI0
aI0
aI0
aI0
aI0
aI0
aI0
aI0
aI0
aI0
aI0
aI0
aI0
aI0
aI0
aI0
aI0
aI0
aI0
aI0
aI0
aI0
aI0
aI0
aI0
aI0
aI0
aI0
aI0
aI0
aI0
aI0
aI0
aI0
aI0
aI0
aI0
aI0
aI0
aI0
aI0
aI0
aI0
aI0
aI0
aI0
aI0
aI0
aI0
aI0
aI0
aI0
aI0
aI0
aI0
aI0
aI0
aI0
aI0
aI0
aI0
aI0
aI0
aI0
aI0
aI0
aI0
aI0
aI0
aI0
aI0
aI0
aI0
aI0
aI0
aI0
aI0
aI0
aI0
aI0
aI0
aI0
aI0
aI0
aI0
aI0
aI0
aI0
aI0
aI0
aI0
aI0
aI0
aI0
aI0
aI0
aI0
aI0
aI0
aI0
aI0
aI0
aI0
aI0
aI0
aI0
aI0
aI0
aI0
aI0
aI0
aI0
aI0
aI0
aI0
aI0
aI0
aI0
aI0
aI0
aI0
aI0
aI0
aI0
aI0
aI0
aI0
aI0
aI0
aI0
aI0
aI0
aI0
aI0
aI0
aI0
aI0
aI0
aI0
aI0
aI0
aI0
aI0
aI0
aI0
aI0
aI0
aI0
aI0
aI0
aI0
aI0
aI0
aI0
aI0
aI0
aI0
aI0
aI0
aI0
aI0
aI0
aI0
aI0
aI0
aI0
aI0
aI0
aI0
aI0
aI0
aI0
aI0
aI0
aI0
aI0
aI0
aI0
aI0
aI0
aI0
aI0
aI0
aI0
aI0
aI0
aI0
aI0
aI0
aI0
aI0
aI0
aI0
aI0
aI0
aI0
aI0
aI0
aI0
aI0
aI0
aI0
aI0
aI0
aI0
aI0
aI0
aI0
aI0
aI0
aI0
aI0
aI0
aI0
aI0
aI0
aI0
aI0
asS'costPerLaneChange'
p28
(lp29
F0.43203338985261397
aF0.5076194502366144
aF0.5460604311571011
aF0.6210386860138439
aF0.6344084741433271
aF0.6861752993460425
aF0.7235494921374622
aF0.7000914606092073
aF0.7248935690107667
aF0.7753359563357466
aF0.7491302256506268
aF0.7576724185842625
aF0.7871815391720575
aF0.7548041601670147
aF0.7922816886923938
aF0.8071122214213261
aF0.849200477468765
aF0.8979539017573287
aF0.8904204427849041
aF0.8442737205669226
aF0.7620482401585542
aF0.7486512600631152
aF0.7414936192705621
aF0.6875721349096977
aF0.7025262888216475
aF0.7496126255380234
aF0.7251646634788603
aF0.7390304192309567
aF0.7211373921200894
aF0.7273430969963446
aF0.716316158024645
aF0.6694988213709377
aF0.674947543156629
aF0.6797038017520328
aF0.6534062930940504
aF0.6907101865136316
aF0.6925943473108322
aF0.6387040333220232
aF0.6586593189987205
aF0.6822281828956421
aF0.6637011665078276
aF0.6269452887811249
aF0.6302398044745481
aF0.6478967001434741
aF0.6680598724839398
aF0.6960418519548617
aF0.6996028094922019
aF0.7137717157941953
aF0.6965764525958892
aF0.6754466098924982
aF0.674782533243125
aF0.6736948500734987
aF0.6984903387400695
aF0.6759394758590052
aF0.6735275458655823
aF0.6978710231399542
aF0.7021478351005827
aF0.6117812608075328
aF0.6340098015728586
aF0.6760614018609026
aF0.6905140085918563
aF0.6686076624059519
aF0.7298487014980958
aF0.6911971048876394
aF0.7621308307260414
aF0.6975870114606885
aF0.6723840227944132
aF0.6248941983372087
aF0.6764522581271536
aF0.6783624156994041
aF0.6880632625959221
aF0.6537478531052988
aF0.6334834778729129
aF0.6699947861462802
aF0.6708724019897869
aF0.6757578807185002
aF0.6631381007762336
aF0.6184812331545766
aF0.622350369232182
aF0.6464922705801299
aF0.6417465491382907
aF0.6771724378611065
aF0.7162665065779324
aF0.7115546016514418
aF0.699838792611914
aF0.7098599334871974
aF0.6876030569905351
aF0.6435030901594537
aF0.6707037309131573
aF0.6345384821559669
aF0.619379965133381
aF0.6381232658521735
aF0.7170723847887132
aF0.7126715231706315
aF0.6752139246632285
aF0.6859983789407388
aF0.6519368723099019
aF0.6563088342569603
aF0.688283800619392
aF0.651122386937411
aF0.33958460055550066
aF0.33861520386950833
aF0.33798079863241837
aF0.3379522865982302
aF0.33836635909473506
aF0.3363991181151716
aF0.33857923218580727
aF0.33744619799139086
aF0.33797706016639717
aF0.3391585278641555
aF0.3403436518473412
aF0.33744619799139086
aF0.33744619799139086
aF0.3379522865982301
aF0.33434769631686445
aF0.3363046447428812
aF0.3352585984295146
aF0.3380169746156458
aF0.33744619799139086
aF0.3384651683407318
aF0.33850054925563944
aF0.3365548976261641
aF0.33744619799139086
aF0.3395403577438294
aF0.33948413869007266
aF0.33802318781520035
aF0.3379770601663971
aF0.33643402077771223
aF0.33899544882865407
aF0.3369804722795755
aF0.33527520833127855
aF0.33841944531223567
aF0.33887852423716247
aF0.3365147465677602
aF0.33744619799139086
aF0.33642120257138014
aF0.3379962943031728
aF0.3347944891922538
aF0.3375036271172549
aF0.338486106087636
aF0.33845167204471405
aF0.3393322424889286
aF0.3356058757847024
aF0.33311996468380894
aF0.33692624394326826
aF0.33849327786761013
aF0.3369153358163846
aF0.33744619799139086
aF0.33800438395481663
aF0.33850054925563944
aF0.3384583752050695
aF0.33899544882865407
aF0.3385708393399227
aF0.3358900799075087
aF0.33897465351540224
aF0.33744619799139086
aF0.33468629044639203
aF0.33744619799139086
aF0.3388967704313761
aF0.33888758959314835
aF0.336950032690568
aF0.3374461979913908
aF0.33898498091759155
aF0.338506819218557
aF0.33893469389385944
aF0.3359931340852491
aF0.33693671281672044
aF0.3380271670553646
aF0.3374461979913908
aF0.3390387845164097
aF0.33904999991447327
aF0.33796973792950047
aF0.33803120156275335
aF0.3384583752050695
aF0.337988435784433
aF0.33859639937057123
aF0.33851539927344576
aF0.3363298260645395
aF0.3385079223414034
aF0.3379591256334577
aF0.33851539927344576
aF0.33896446381190887
aF0.33640634756529303
aF0.33491575495719433
aF0.3389544090713756
aF0.33750208539575527
aF0.3402371278085195
aF0.3391846703049611
aF0.33744619799139086
aF0.33749923762992773
aF0.3374461979913908
aF0.33850054925563944
aF0.33687109730180076
aF0.33807958531677584
aF0.33626924774292744
aF0.33799233677574986
aF0.33744619799139086
aF0.33744619799139086
aF0.3392211385652855
aF0.33699860813857224
aF0.3379090839122805
aF0.33795912563345776
aF0.3379522865982302
aF0.33442977583142147
aF0.339569646691416
aF0.3369153358163846
aF0.33744619799139086
aF0.33601212838467587
aF0.3364427059717999
aF0.33969548068845457
aF0.33845167204471405
aF0.3379522865982302
aF0.33909648692673655
aF0.33948413869007266
aF0.3388967704313761
aF0.33846516834073176
aF0.33846516834073176
aF0.33797706016639717
aF0.33798843578443305
aF0.3374461979913908
aF0.33791192370320616
aF0.33916175259084613
aF0.3383608159555583
aF0.33695957433096846
aF0.3364972818535671
aF0.33842572432720885
aF0.3358446458028697
aF0.33750362711725496
aF0.33644072393806773
aF0.33638447364137836
aF0.3390613743961972
aF0.33744619799139086
aF0.3364791496980673
aF0.33841324628471436
aF0.33849327786761013
aF0.3364496746663804
aF0.33903878451640973
aF0.3385507069934743
aF0.33691902235926663
aF0.33700732742141937
aF0.33641336409988204
aF0.33952601418388123
aF0.33803529249681874
aF0.33636941372152
aF0.3374461979913909
aF0.33750443032181254
aF0.3379923367757499
aF0.33691902235926663
aF0.3359769084876638
aF0.3379697379295005
asba(iparams
Statistics
p30
(dp31
g8
(lp32
I14
aI14
aI16
aI14
aI16
aI17
aI16
aI23
aI27
aI26
aI35
aI27
aI20
aI38
aI33
aI41
aI35
aI37
aI30
aI21
aI28
aI29
aI40
aI33
aI30
aI39
aI33
aI33
aI37
aI33
aI40
aI28
aI35
aI37
aI34
aI40
aI36
aI40
aI38
aI34
aI33
aI30
aI22
aI35
aI44
aI23
aI34
aI35
aI32
aI29
aI24
aI45
aI39
aI33
aI32
aI31
aI40
aI39
aI28
aI41
aI37
aI27
aI37
aI43
aI37
aI38
aI34
aI49
aI34
aI35
aI35
aI24
aI42
aI28
aI29
aI40
aI37
aI34
aI33
aI42
aI40
aI31
aI36
aI34
aI37
aI34
aI39
aI44
aI35
aI34
aI41
aI47
aI44
aI35
aI35
aI45
aI25
aI33
aI34
aI35
aI41
aI42
aI31
aI49
aI33
aI36
aI36
aI32
aI36
aI51
aI33
aI31
aI38
aI40
aI32
aI38
aI42
aI26
aI39
aI42
aI27
aI28
aI34
aI46
aI38
aI33
aI40
aI33
aI36
aI34
aI43
aI39
aI38
aI40
aI40
aI37
aI33
aI39
aI30
aI29
aI35
aI31
aI41
aI37
aI50
aI37
aI37
aI34
aI36
aI40
aI36
aI35
aI40
aI39
aI42
aI38
aI41
aI34
aI40
aI23
aI34
aI36
aI29
aI41
aI43
aI28
aI33
aI40
aI36
aI36
aI41
aI43
aI34
aI43
aI25
aI39
aI24
aI47
aI31
aI35
aI29
aI29
aI40
aI37
aI40
aI30
aI21
aI36
aI34
aI27
aI34
aI30
aI26
aI31
aI39
aI33
aI39
aI33
aI37
aI33
aI40
aI33
aI37
aI30
aI37
aI42
aI37
aI32
aI36
aI34
aI34
aI30
aI35
aI34
aI43
aI42
aI42
aI35
aI45
aI32
aI48
aI37
aI41
aI28
aI39
aI29
aI43
aI45
aI33
aI34
aI37
aI28
aI37
aI37
aI36
aI28
aI28
aI38
aI31
aI32
aI24
aI40
aI27
aI27
aI35
aI24
aI39
aI43
aI46
aI41
asg10
g11
sg12
(lp33
I149
aI189
aI213
aI221
aI239
aI252
aI263
aI247
aI273
aI283
aI299
aI269
aI288
aI281
aI293
aI290
aI286
aI291
aI270
aI262
aI277
aI299
aI301
aI291
aI282
aI295
aI299
aI292
aI286
aI311
aI300
aI310
aI291
aI273
aI284
aI286
aI291
aI293
aI294
aI300
aI280
aI259
aI240
aI283
aI281
aI288
aI294
aI297
aI287
aI281
aI286
aI305
aI304
aI305
aI289
aI295
aI281
aI281
aI281
aI292
aI296
aI297
aI300
aI297
aI297
aI287
aI300
aI307
aI285
aI291
aI290
aI300
aI293
aI290
aI298
aI290
aI284
aI306
aI290
aI321
aI308
aI298
aI292
aI294
aI305
aI297
aI290
aI293
aI299
aI302
aI312
aI296
aI279
aI281
aI288
aI305
aI290
aI303
aI302
aI295
aI305
aI275
aI297
aI311
aI299
aI312
aI286
aI294
aI303
aI317
aI287
aI282
aI279
aI270
aI294
aI298
aI272
aI292
aI315
aI302
aI294
aI295
aI302
aI308
aI290
aI302
aI284
aI295
aI303
aI313
aI319
aI323
aI317
aI305
aI287
aI295
aI286
aI293
aI309
aI302
aI296
aI305
aI300
aI298
aI309
aI286
aI297
aI268
aI296
aI289
aI281
aI280
aI291
aI297
aI297
aI296
aI303
aI301
aI287
aI279
aI299
aI287
aI293
aI298
aI299
aI289
aI298
aI307
aI295
aI310
aI306
aI294
aI290
aI275
aI280
aI281
aI294
aI314
aI292
aI299
aI290
aI281
aI287
aI285
aI266
aI266
aI278
aI271
aI288
aI283
aI293
aI286
aI288
aI316
aI300
aI291
aI278
aI286
aI285
aI285
aI288
aI288
aI280
aI307
aI299
aI291
aI290
aI284
aI311
aI324
aI304
aI290
aI288
aI290
aI310
aI300
aI309
aI298
aI292
aI309
aI286
aI285
aI283
aI289
aI278
aI304
aI282
aI260
aI253
aI255
aI281
aI273
aI283
aI311
aI298
aI276
aI302
aI288
aI277
aI271
aI296
aI289
aI269
aI268
aI278
aI297
aI307
aI298
aI303
aI287
asg14
(lp34
I149
aI189
aI213
aI221
aI239
aI252
aI263
aI247
aI273
aI283
aI299
aI269
aI288
aI281
aI293
aI290
aI286
aI291
aI270
aI262
aI277
aI299
aI301
aI291
aI282
aI295
aI299
aI292
aI286
aI311
aI300
aI310
aI291
aI273
aI284
aI286
aI291
aI293
aI294
aI300
aI280
aI259
aI240
aI283
aI281
aI288
aI294
aI297
aI287
aI281
aI286
aI305
aI304
aI305
aI289
aI295
aI281
aI281
aI281
aI292
aI296
aI297
aI300
aI297
aI297
aI287
aI300
aI307
aI285
aI291
aI290
aI300
aI293
aI290
aI298
aI290
aI284
aI306
aI290
aI321
aI308
aI298
aI292
aI294
aI305
aI297
aI290
aI293
aI299
aI302
aI312
aI296
aI279
aI281
aI288
aI305
aI290
aI303
aI302
aI295
aI305
aI275
aI297
aI311
aI299
aI312
aI286
aI294
aI303
aI317
aI287
aI282
aI279
aI270
aI294
aI298
aI272
aI292
aI315
aI302
aI294
aI295
aI302
aI308
aI290
aI302
aI284
aI295
aI303
aI313
aI319
aI323
aI317
aI305
aI287
aI295
aI286
aI293
aI309
aI302
aI296
aI305
aI300
aI298
aI309
aI286
aI297
aI268
aI296
aI289
aI281
aI280
aI291
aI297
aI297
aI296
aI303
aI301
aI287
aI279
aI299
aI287
aI293
aI298
aI299
aI289
aI298
aI307
aI295
aI310
aI306
aI294
aI290
aI275
aI280
aI281
aI294
aI314
aI292
aI299
aI290
aI281
aI287
aI285
aI266
aI266
aI278
aI271
aI288
aI283
aI293
aI286
aI288
aI316
aI300
aI291
aI278
aI286
aI285
aI285
aI288
aI288
aI280
aI307
aI299
aI291
aI290
aI284
aI311
aI324
aI304
aI290
aI288
aI290
aI310
aI300
aI309
aI298
aI292
aI309
aI286
aI285
aI283
aI289
aI278
aI304
aI282
aI260
aI253
aI255
aI281
aI273
aI283
aI311
aI298
aI276
aI302
aI288
aI277
aI271
aI296
aI289
aI269
aI268
aI278
aI297
aI307
aI298
aI303
aI287
asg5
(lp35
F2.6368229389190674
aF3.186289072036743
aF3.6620450019836426
aF4.2588818073272705
aF4.914124965667725
aF4.815207004547119
aF4.98100209236145
aF4.929463148117065
aF5.301498889923096
aF5.2845611572265625
aF5.590610027313232
aF5.2199389934539795
aF5.263551950454712
aF5.312865972518921
aF5.485785007476807
aF5.502716064453125
aF5.63118314743042
aF5.52377986907959
aF5.031766176223755
aF4.905947923660278
aF5.259605169296265
aF5.744341135025024
aF5.7942140102386475
aF5.592288970947266
aF5.474581956863403
aF5.479846954345703
aF5.493989944458008
aF5.618008136749268
aF5.602006912231445
aF6.108674049377441
aF5.682958126068115
aF5.84360408782959
aF5.736809015274048
aF5.396717071533203
aF5.356458902359009
aF5.625123977661133
aF5.421309947967529
aF5.562680006027222
aF5.778224945068359
aF5.569080114364624
aF5.436835050582886
aF4.818246841430664
aF4.631606817245483
aF5.271492958068848
aF5.190233945846558
aF5.54446005821228
aF5.806573152542114
aF5.709442853927612
aF5.569994926452637
aF5.4969398975372314
aF5.573754072189331
aF5.981416940689087
aF5.8710901737213135
aF5.67411994934082
aF5.576440811157227
aF5.477144002914429
aF5.408053159713745
aF5.4906110763549805
aF5.583501100540161
aF5.820603132247925
aF5.588587045669556
aF5.865609884262085
aF6.052001953125
aF6.009001016616821
aF5.840384006500244
aF5.727956056594849
aF5.696671009063721
aF6.0554749965667725
aF5.4901769161224365
aF5.569102048873901
aF5.427567005157471
aF5.740213871002197
aF5.753532886505127
aF5.735733985900879
aF5.88604998588562
aF5.812510967254639
aF5.483684062957764
aF5.778977870941162
aF5.777695894241333
aF6.2715959548950195
aF6.121066093444824
aF5.896034002304077
aF5.799642086029053
aF5.898198127746582
aF5.930371999740601
aF5.827278137207031
aF6.105832099914551
aF5.774765968322754
aF5.975791931152344
aF6.1393280029296875
aF6.251657962799072
aF5.92934513092041
aF5.653109073638916
aF5.346979141235352
aF5.794770002365112
aF6.082118034362793
aF5.587715148925781
aF5.929247140884399
aF5.982919931411743
aF6.238224029541016
aF6.0456109046936035
aF5.5616490840911865
aF5.925299882888794
aF6.0398499965667725
aF5.908969163894653
aF6.006809949874878
aF5.505913972854614
aF5.872765064239502
aF6.190896034240723
aF6.064574956893921
aF5.5814759731292725
aF5.421051025390625
aF5.313589096069336
aF5.462045907974243
aF5.72420597076416
aF5.681259870529175
aF5.373244047164917
aF5.675979137420654
aF6.171257972717285
aF5.892775058746338
aF5.751314878463745
aF5.92212700843811
aF5.979278087615967
aF6.2273499965667725
aF5.898940086364746
aF5.8684241771698
aF5.695379018783569
aF5.887389898300171
aF5.9943320751190186
aF6.330874919891357
aF6.508049011230469
aF6.365147829055786
aF6.468340873718262
aF6.0788140296936035
aF5.637063026428223
aF5.992240905761719
aF5.747584104537964
aF5.727520942687988
aF5.900135040283203
aF6.01032018661499
aF5.923291206359863
aF6.027022123336792
aF6.098361015319824
aF6.213884115219116
aF5.980597019195557
aF5.616569995880127
aF5.653753042221069
aF5.332084894180298
aF5.552682876586914
aF5.826008081436157
aF5.466874837875366
aF5.589641094207764
aF5.626938819885254
aF5.851945877075195
aF5.840595960617065
aF5.628631114959717
aF5.786795139312744
aF5.740527868270874
aF5.559535980224609
aF5.672220945358276
aF5.9992170333862305
aF5.6491498947143555
aF5.775117874145508
aF5.839459180831909
aF5.8301780223846436
aF5.6886961460113525
aF6.185188055038452
aF6.155263900756836
aF5.8746819496154785
aF6.130160808563232
aF6.1122870445251465
aF5.8212971687316895
aF5.58265495300293
aF5.341789960861206
aF5.3536670207977295
aF5.465787887573242
aF5.664467096328735
aF5.903995990753174
aF5.646588087081909
aF6.022701978683472
aF5.7486560344696045
aF5.405537843704224
aF5.423846960067749
aF5.656888008117676
aF5.233069896697998
aF5.075995922088623
aF5.299053192138672
aF5.375464916229248
aF5.486845970153809
aF5.48896598815918
aF5.5919349193573
aF5.443873882293701
aF5.494617938995361
aF6.2000579833984375
aF5.891880035400391
aF5.779167890548706
aF5.5534350872039795
aF5.717543840408325
aF5.5710389614105225
aF5.662492036819458
aF5.473706007003784
aF5.574259996414185
aF5.402379989624023
aF5.8465940952301025
aF5.9475038051605225
aF6.1059889793396
aF5.812162160873413
aF5.751511096954346
aF6.105736970901489
aF6.077269077301025
aF6.005514144897461
aF5.911102056503296
aF5.813019037246704
aF5.863204002380371
aF6.026911020278931
aF5.80981183052063
aF6.123827934265137
aF6.217165946960449
aF5.84900689125061
aF6.073034048080444
aF5.592658996582031
aF5.491542100906372
aF5.440385103225708
aF5.641236066818237
aF5.509816884994507
aF5.758678913116455
aF5.7071919441223145
aF5.323129892349243
aF5.010456085205078
aF5.073214054107666
aF5.3814167976379395
aF5.448229074478149
aF5.8408520221710205
aF6.1076459884643555
aF5.800841808319092
aF5.335919141769409
aF5.644366979598999
aF5.389516115188599
aF5.399595022201538
aF5.515129089355469
aF5.761495113372803
aF5.579414129257202
aF5.26384711265564
aF5.4352710247039795
aF5.422796010971069
aF5.81800103187561
aF5.941978931427002
aF5.930881023406982
aF6.174767971038818
aF5.688436031341553
asg17
g1
sg18
(lp36
I159
aI201
aI234
aI254
aI282
aI281
aI287
aI282
aI311
aI312
aI329
aI304
aI309
aI315
aI321
aI323
aI321
aI321
aI296
aI296
aI313
aI335
aI339
aI322
aI314
aI323
aI323
aI330
aI326
aI348
aI334
aI344
aI333
aI315
aI313
aI325
aI318
aI325
aI341
aI325
aI311
aI279
aI273
aI312
aI313
aI325
aI336
aI336
aI324
aI318
aI326
aI349
aI346
aI339
aI325
aI319
aI317
aI321
aI322
aI336
aI329
aI338
aI345
aI340
aI333
aI331
aI330
aI346
aI317
aI321
aI324
aI330
aI331
aI332
aI336
aI332
aI321
aI335
aI337
aI359
aI345
aI333
aI335
aI333
aI339
aI333
aI339
aI329
aI332
aI350
aI348
aI335
aI318
aI311
aI337
aI353
aI319
aI340
aI340
aI350
aI342
aI318
aI336
aI343
aI335
aI348
aI321
aI339
aI347
aI347
aI321
aI314
aI308
aI307
aI323
aI328
aI308
aI328
aI347
aI338
aI331
aI335
aI342
aI355
aI331
aI335
aI322
aI332
aI349
aI362
aI368
aI359
aI358
aI344
aI324
aI339
aI335
aI325
aI337
aI344
aI339
aI341
aI344
aI343
aI341
aI320
aI326
aI309
aI318
aI322
aI313
aI322
aI326
aI331
aI331
aI321
aI337
aI331
aI320
aI325
aI340
aI320
aI330
aI338
aI332
aI329
aI348
aI345
aI339
aI345
aI346
aI325
aI316
aI304
aI303
aI313
aI327
aI348
aI328
aI334
aI327
aI312
aI310
aI320
aI300
aI292
aI306
aI305
aI317
aI317
aI332
aI316
aI326
aI353
aI341
aI329
aI319
aI322
aI317
aI319
aI315
aI317
aI317
aI344
aI340
aI341
aI328
aI326
aI350
aI353
aI340
aI333
aI326
aI333
aI347
aI336
aI345
aI350
aI333
aI345
aI320
aI321
aI320
aI324
aI315
aI324
aI323
aI297
aI284
aI290
aI307
aI304
aI331
aI343
aI335
aI311
aI326
aI320
aI318
aI317
aI330
aI317
aI302
aI308
aI309
aI331
aI345
aI346
aI346
aI323
asg20
(lp37
I160
aI203
aI234
aI255
aI282
aI281
aI287
aI284
aI313
aI312
aI331
aI304
aI310
aI317
aI324
aI326
aI322
aI324
aI296
aI298
aI314
aI338
aI340
aI328
aI319
aI327
aI328
aI332
aI330
aI351
aI340
aI348
aI336
aI317
aI315
aI328
aI323
aI330
aI345
aI327
aI313
aI282
aI275
aI314
aI314
aI327
aI338
aI339
aI328
aI319
aI329
aI352
aI350
aI343
aI328
aI321
aI321
aI326
aI323
aI337
aI329
aI341
aI350
aI343
aI334
aI332
aI333
aI350
aI321
aI328
aI328
aI332
aI332
aI335
aI339
aI336
aI323
aI336
aI339
aI362
aI348
aI335
aI337
aI336
aI341
aI337
aI343
aI333
aI336
aI353
aI351
aI339
aI321
aI316
aI341
aI356
aI323
aI341
aI341
aI353
aI346
aI320
aI340
aI347
aI338
aI353
aI323
aI340
aI350
aI350
aI325
aI317
aI313
aI311
aI326
aI334
aI314
aI330
aI350
aI343
aI334
aI339
aI344
aI355
aI333
aI340
aI325
aI336
aI351
aI364
aI371
aI362
aI362
aI348
aI328
aI342
aI336
aI330
aI339
aI345
aI341
aI343
aI345
aI346
aI343
aI324
aI331
aI312
aI322
aI325
aI315
aI324
aI330
aI334
aI335
aI325
aI341
aI333
aI322
aI326
aI342
aI324
aI335
aI343
aI338
aI333
aI351
aI349
aI342
aI348
aI349
aI329
aI319
aI308
aI308
aI316
aI330
aI352
aI333
aI337
aI329
aI313
aI313
aI324
aI304
aI292
aI307
aI307
aI319
aI319
aI334
aI316
aI327
aI354
aI341
aI331
aI321
aI325
aI321
aI323
aI320
aI320
aI319
aI347
aI342
aI345
aI330
aI328
aI353
aI356
aI344
aI336
aI327
aI337
aI350
aI341
aI349
aI352
aI335
aI348
aI325
aI325
aI323
aI326
aI317
aI326
aI327
aI299
aI286
aI292
aI309
aI305
aI333
aI344
aI336
aI314
aI329
aI323
aI321
aI321
aI331
aI320
aI305
aI312
aI312
aI334
aI348
aI348
aI349
aI325
asg22
(lp38
sg24
(lp39
I34
aI40
aI46
aI38
aI45
aI45
aI54
aI49
aI43
aI51
aI51
aI58
aI53
aI59
aI50
aI50
aI54
aI58
aI59
aI49
aI56
aI49
aI56
aI51
aI53
aI52
aI55
aI58
aI59
aI52
aI52
aI60
aI52
aI58
aI56
aI45
aI54
aI47
aI55
aI64
aI65
aI63
aI61
aI42
aI43
aI47
aI53
aI58
aI60
aI50
aI50
aI49
aI54
aI50
aI68
aI57
aI48
aI48
aI46
aI42
aI54
aI49
aI51
aI50
aI53
aI57
aI59
aI54
aI65
aI52
aI43
aI64
aI42
aI55
aI51
aI51
aI50
aI40
aI46
aI50
aI53
aI54
aI53
aI55
aI51
aI56
aI46
aI45
aI53
aI58
aI52
aI56
aI53
aI44
aI41
aI48
aI57
aI49
aI37
aI47
aI55
aI52
aI64
aI49
aI51
aI56
aI50
aI52
aI52
aI53
aI62
aI66
aI51
aI50
aI58
aI46
aI50
aI53
aI47
aI38
aI54
aI49
aI38
aI46
aI60
aI45
aI47
aI48
aI51
aI55
aI50
aI55
aI48
aI60
aI58
aI55
aI55
aI51
aI50
aI51
aI45
aI60
aI51
aI56
aI46
aI46
aI47
aI59
aI63
aI44
aI57
aI57
aI58
aI51
aI54
aI46
aI41
aI47
aI48
aI52
aI59
aI50
aI54
aI46
aI47
aI52
aI41
aI47
aI54
aI57
aI58
aI61
aI56
aI53
aI54
aI54
aI57
aI47
aI58
aI51
aI62
aI63
aI54
aI61
aI43
aI50
aI58
aI51
aI52
aI54
aI51
aI54
aI60
aI55
aI57
aI58
aI49
aI60
aI55
aI55
aI47
aI61
aI49
aI53
aI55
aI54
aI53
aI50
aI34
aI49
aI49
aI49
aI53
aI47
aI51
aI51
aI43
aI53
aI61
aI68
aI45
aI54
aI48
aI55
aI49
aI56
aI61
aI55
aI47
aI58
aI56
aI54
aI39
aI43
aI61
aI56
aI54
aI50
aI48
aI56
aI55
aI49
aI67
aI53
aI56
aI52
aI58
aI52
aI57
aI45
asg26
g27
sg28
(lp40
F0.4290547516941251
aF0.4524729494741998
aF0.489732372941214
aF0.5335771478780457
aF0.5362425488240754
aF0.5484832104798427
aF0.546520691091052
aF0.5557949139189153
aF0.536637719445617
aF0.5527010527272732
aF0.5309137538955081
aF0.5613950139552263
aF0.5373950393398823
aF0.5678035331153177
aF0.5581100132773895
aF0.5757814109007418
aF0.586164945223593
aF0.6133456114323381
aF0.6178060888584297
aF0.5937507529543239
aF0.5678413304011839
aF0.5616099053090754
aF0.5477055290223928
aF0.537797672085846
aF0.5289345628916542
aF0.509915562756393
aF0.5063945277474003
aF0.5031066084740429
aF0.5052839624286465
aF0.5056535546213511
aF0.49942037302726355
aF0.504862741291069
aF0.5129813755450533
aF0.5230104835439481
aF0.5129121521386217
aF0.5073782949634608
aF0.5228674991760518
aF0.509048530758349
aF0.5119648256825253
aF0.505578322344794
aF0.5290971719338298
aF0.5444416621747671
aF0.5608981966163694
aF0.5301062146550141
aF0.5132237982695358
aF0.5141364404529392
aF0.5171006712514629
aF0.5069352828545471
aF0.5257452891377753
aF0.5108516802171068
aF0.5115960761983004
aF0.5049802152225488
aF0.5118853445869121
aF0.5069986858830652
aF0.5122116767934547
aF0.49901960284245456
aF0.510642517570706
aF0.5110625657848127
aF0.5254730795780398
aF0.519401265343109
aF0.5197916476239477
aF0.5141217593288303
aF0.5112024256446503
aF0.5066796825480625
aF0.5080434275506452
aF0.5357982131791372
aF0.5159825099987898
aF0.4922094808871957
aF0.4995678236551957
aF0.4976455890676856
aF0.5031429156101618
aF0.5054656788985011
aF0.519585948035861
aF0.5239713243341525
aF0.4962327114471697
aF0.5077973459272841
aF0.519922307610666
aF0.5042390620795536
aF0.528161313290363
aF0.49704919877073006
aF0.4948570622311578
aF0.4972796254986928
aF0.5004196265531643
aF0.4950063914007394
aF0.4869730314642683
aF0.5047486613550684
aF0.5025906611091199
aF0.5047292670119689
aF0.5090186037370207
aF0.5196329023592677
aF0.5084941042831531
aF0.4983314485789776
aF0.49818652522783724
aF0.5140046262048648
aF0.5209318957313168
aF0.5138312630387167
aF0.5293823499955075
aF0.492498788129446
aF0.5020063266081539
aF0.4958735076570374
aF0.3369484059190922
aF0.33744619799139264
aF0.3392354001367846
aF0.338449350362306
aF0.338715651018582
aF0.3382295131182466
aF0.33611904255387715
aF0.33641336409988415
aF0.338225297319208
aF0.3379514150428194
aF0.34035576663698436
aF0.3361297468145161
aF0.336961710050349
aF0.33744619799139264
aF0.338737240355779
aF0.3374741416935752
aF0.33859318470960525
aF0.33851462397548127
aF0.3374461979913932
aF0.33945714609803923
aF0.3361834795156134
aF0.3387328639409845
aF0.3371948294780622
aF0.33966444350838354
aF0.3380271670553665
aF0.3397360881982917
aF0.33827742016156176
aF0.33744619799139297
aF0.33894943147705436
aF0.3389014048481197
aF0.3379221433896746
aF0.33864710721238317
aF0.3384303632511847
aF0.3362017178106407
aF0.3353591627824838
aF0.33827465331199735
aF0.33718076690388976
aF0.33799279800948884
aF0.34014861288228254
aF0.33870304055804695
aF0.33901311342857443
aF0.339935158352898
aF0.33871141950849126
aF0.3371914554040578
aF0.33842889431535306
aF0.3387733534289085
aF0.3374461979913929
aF0.33801271508860065
aF0.3379872581444407
aF0.33884601849270896
aF0.3401477385972965
aF0.34015738695660336
aF0.3387505500708755
aF0.3371905976849086
aF0.3407970397644129
aF0.3369614028603069
aF0.3379472758199468
aF0.33946382698875904
aF0.33800422518756734
aF0.3385345605867461
aF0.33798182944725275
aF0.3406202728774929
aF0.3408143644874224
aF0.33622837245908127
aF0.3382078698077062
aF0.33878839065014643
aF0.3392293961027395
aF0.3374461979913931
aF0.337446197991393
aF0.33916036907907465
aF0.33871382439132697
aF0.33796261493714735
aF0.3364278326781057
aF0.3380285754652185
aF0.3371750790948717
aF0.3380161403590159
aF0.3377044064642702
aF0.3381980040306541
aF0.3366662669192091
aF0.3379818294472528
aF0.33799845249243454
aF0.3387969682943446
aF0.33800422518756745
aF0.33827450359254363
aF0.3397293044884121
aF0.3391898332147223
aF0.3366569438553229
aF0.33968718075230475
aF0.3395549005198899
aF0.33771444283600727
aF0.3397780055655671
aF0.337977060166399
aF0.33592249903425814
aF0.3377391338696417
aF0.3402296853290092
aF0.33901142048677213
aF0.33881154495229016
aF0.33774074524410674
aF0.3377125604160451
aF0.3353445169213687
aF0.3380022875931361
aF0.33905663885738485
aF0.33717507909487177
aF0.33870969531510564
aF0.33846176041314424
aF0.339794031734462
aF0.33823150789855744
aF0.33747551920002056
aF0.3374997492663147
aF0.33908629995800227
aF0.337446197991393
aF0.3395403577438314
aF0.33958381448950903
aF0.33980212771288626
aF0.3367115532395297
aF0.3382053309016519
aF0.33892024247733293
aF0.33673785763375164
aF0.33666626691920915
aF0.3350433550666086
aF0.3398350777789212
aF0.3369134731420883
aF0.3366708882746883
aF0.34112365845631515
aF0.3382654061679311
aF0.3389444866300621
aF0.3363989428819838
aF0.33832212058015293
aF0.33627890178248604
aF0.3368834554078569
aF0.33906712235493525
aF0.34050497528547635
aF0.33986040159292313
aF0.33769029217475616
aF0.33948413869007477
aF0.33772124614728355
aF0.3374737715783146
aF0.33800228759313616
aF0.33692814976467245
aF0.33716607514627855
aF0.3385001857865074
aF0.3371835222438984
aF0.33772840353423983
aF0.33886249073441305
aF0.33826540616793127
aF0.3392634379255059
aF0.33522072691897276
aF0.3389746535154042
aF0.3364440423342853
aF0.3356236690229923
asba(iparams
Statistics
p41
(dp42
g8
(lp43
I15
aI19
aI20
aI18
aI22
aI22
aI28
aI33
aI48
aI45
aI35
aI36
aI49
aI55
aI48
aI55
aI39
aI64
aI55
aI54
aI51
aI63
aI64
aI58
aI59
aI64
aI61
aI51
aI54
aI48
aI52
aI62
aI58
aI51
aI65
aI51
aI56
aI58
aI49
aI58
aI57
aI50
aI64
aI52
aI69
aI69
aI53
aI45
aI74
aI69
aI52
aI65
aI63
aI50
aI54
aI42
aI51
aI51
aI61
aI55
aI58
aI48
aI49
aI57
aI61
aI65
aI65
aI59
aI59
aI56
aI55
aI54
aI57
aI48
aI60
aI53
aI50
aI60
aI67
aI61
aI61
aI49
aI65
aI50
aI54
aI64
aI47
aI57
aI57
aI54
aI55
aI68
aI47
aI55
aI57
aI52
aI60
aI68
aI57
aI57
aI52
aI55
aI68
aI64
aI59
aI67
aI63
aI43
aI56
aI49
aI63
aI53
aI63
aI51
aI52
aI66
aI56
aI53
aI48
aI56
aI65
aI64
aI49
aI43
aI64
aI50
aI50
aI54
aI38
aI59
aI58
aI59
aI64
aI56
aI67
aI65
aI55
aI61
aI61
aI73
aI48
aI56
aI56
aI46
aI64
aI60
aI63
aI49
aI52
aI66
aI54
aI58
aI51
aI60
aI59
aI55
aI58
aI60
aI55
aI50
aI49
aI61
aI55
aI62
aI47
aI48
aI48
aI58
aI65
aI48
aI51
aI53
aI55
aI60
aI49
aI54
aI64
aI52
aI52
aI55
aI63
aI41
aI60
aI64
aI57
aI68
aI52
aI54
aI52
aI63
aI52
aI56
aI63
aI65
aI62
aI55
aI65
aI41
aI50
aI52
aI55
aI64
aI58
aI56
aI50
aI56
aI63
aI58
aI69
aI63
aI52
aI61
aI46
aI49
aI57
aI70
aI64
aI60
aI46
aI55
aI49
aI46
aI52
aI57
aI59
aI61
aI47
aI59
aI47
aI63
aI60
aI67
aI56
aI65
aI43
aI57
aI50
aI53
aI62
aI53
aI45
aI52
aI48
aI53
aI58
aI57
aI53
aI50
aI58
aI59
asg10
g11
sg12
(lp44
I190
aI229
aI273
aI324
aI334
aI353
aI376
aI367
aI384
aI369
aI394
aI411
aI410
aI410
aI430
aI421
aI414
aI434
aI411
aI394
aI428
aI435
aI447
aI435
aI427
aI421
aI431
aI436
aI419
aI430
aI424
aI448
aI412
aI422
aI408
aI419
aI403
aI424
aI431
aI424
aI418
aI421
aI413
aI439
aI437
aI427
aI418
aI439
aI461
aI394
aI379
aI410
aI435
aI418
aI418
aI423
aI405
aI428
aI448
aI414
aI432
aI418
aI416
aI411
aI419
aI425
aI434
aI429
aI428
aI423
aI392
aI404
aI420
aI417
aI420
aI422
aI428
aI440
aI430
aI432
aI420
aI423
aI421
aI423
aI416
aI431
aI397
aI426
aI431
aI442
aI469
aI450
aI403
aI397
aI408
aI401
aI430
aI424
aI442
aI420
aI430
aI441
aI447
aI419
aI431
aI408
aI417
aI398
aI423
aI437
aI411
aI415
aI431
aI406
aI404
aI419
aI421
aI415
aI404
aI426
aI427
aI431
aI407
aI410
aI425
aI408
aI425
aI439
aI414
aI435
aI429
aI433
aI446
aI446
aI439
aI429
aI419
aI420
aI428
aI451
aI418
aI418
aI392
aI399
aI426
aI423
aI416
aI414
aI427
aI457
aI420
aI416
aI417
aI421
aI435
aI393
aI414
aI409
aI415
aI408
aI409
aI425
aI417
aI435
aI408
aI429
aI438
aI416
aI415
aI403
aI402
aI396
aI408
aI418
aI437
aI406
aI416
aI416
aI413
aI428
aI414
aI423
aI445
aI434
aI417
aI441
aI428
aI396
aI417
aI431
aI416
aI441
aI440
aI436
aI401
aI421
aI385
aI404
aI410
aI437
aI433
aI433
aI433
aI436
aI436
aI456
aI442
aI439
aI431
aI440
aI412
aI426
aI403
aI426
aI432
aI448
aI435
aI433
aI419
aI419
aI419
aI422
aI416
aI431
aI431
aI420
aI425
aI400
aI426
aI427
aI421
aI413
aI421
aI428
aI398
aI419
aI434
aI430
aI440
aI424
aI424
aI421
aI413
aI422
aI423
aI414
aI402
aI408
aI397
aI412
asg14
(lp45
I190
aI229
aI273
aI324
aI334
aI353
aI376
aI367
aI384
aI369
aI394
aI411
aI410
aI410
aI430
aI421
aI414
aI434
aI411
aI394
aI428
aI435
aI447
aI435
aI427
aI421
aI431
aI436
aI419
aI430
aI424
aI448
aI412
aI422
aI408
aI419
aI403
aI424
aI431
aI424
aI418
aI421
aI413
aI439
aI437
aI427
aI418
aI439
aI461
aI394
aI379
aI410
aI435
aI418
aI418
aI423
aI405
aI428
aI448
aI414
aI432
aI418
aI416
aI411
aI419
aI425
aI434
aI429
aI428
aI423
aI392
aI404
aI420
aI417
aI420
aI422
aI428
aI440
aI430
aI432
aI420
aI423
aI421
aI423
aI416
aI431
aI397
aI426
aI431
aI442
aI469
aI450
aI403
aI397
aI408
aI401
aI430
aI424
aI442
aI420
aI430
aI441
aI447
aI419
aI431
aI408
aI417
aI398
aI423
aI437
aI411
aI415
aI431
aI406
aI404
aI419
aI421
aI415
aI404
aI426
aI427
aI431
aI407
aI410
aI425
aI408
aI425
aI439
aI414
aI435
aI429
aI433
aI446
aI446
aI439
aI429
aI419
aI420
aI428
aI451
aI418
aI418
aI392
aI399
aI426
aI423
aI416
aI414
aI427
aI457
aI420
aI416
aI417
aI421
aI435
aI393
aI414
aI409
aI415
aI408
aI409
aI425
aI417
aI435
aI408
aI429
aI438
aI416
aI415
aI403
aI402
aI396
aI408
aI418
aI437
aI406
aI416
aI416
aI413
aI428
aI414
aI423
aI445
aI434
aI417
aI441
aI428
aI396
aI417
aI431
aI416
aI441
aI440
aI436
aI401
aI421
aI385
aI404
aI410
aI437
aI433
aI433
aI433
aI436
aI436
aI456
aI442
aI439
aI431
aI440
aI412
aI426
aI403
aI426
aI432
aI448
aI435
aI433
aI419
aI419
aI419
aI422
aI416
aI431
aI431
aI420
aI425
aI400
aI426
aI427
aI421
aI413
aI421
aI428
aI398
aI419
aI434
aI430
aI440
aI424
aI424
aI421
aI413
aI422
aI423
aI414
aI402
aI408
aI397
aI412
asg5
(lp46
F3.252265214920044
aF4.080409049987793
aF4.90545916557312
aF5.933487176895142
aF6.46300196647644
aF6.9472410678863525
aF7.477571964263916
aF7.45251989364624
aF7.5139689445495605
aF7.315424919128418
aF7.7057108879089355
aF8.114105939865112
aF8.762281894683838
aF8.550814867019653
aF8.554955005645752
aF8.436782121658325
aF8.547035932540894
aF8.670678853988647
aF8.106135129928589
aF7.781949996948242
aF8.186647891998291
aF8.646888971328735
aF8.977738857269287
aF8.89449405670166
aF8.74351716041565
aF8.688461065292358
aF8.684326171875
aF8.600219011306763
aF8.301079988479614
aF8.555170059204102
aF8.871575117111206
aF9.095317840576172
aF8.60364294052124
aF8.60103702545166
aF8.282396078109741
aF8.405287027359009
aF8.002947092056274
aF8.450172185897827
aF8.413069009780884
aF8.504004001617432
aF8.526355028152466
aF9.066150903701782
aF9.018089056015015
aF9.092067003250122
aF9.22114896774292
aF9.08400297164917
aF8.684070110321045
aF9.117105960845947
aF9.051072120666504
aF8.375724077224731
aF8.057564973831177
aF8.1528480052948
aF8.449642181396484
aF8.414551019668579
aF8.378373146057129
aF8.460660934448242
aF8.437471866607666
aF8.698246002197266
aF9.125185012817383
aF8.573013067245483
aF8.601873874664307
aF8.44846796989441
aF8.443382024765015
aF8.361987829208374
aF8.530411958694458
aF8.619988918304443
aF8.656521081924438
aF8.760914087295532
aF8.976093053817749
aF8.589704036712646
aF8.223790884017944
aF8.454076051712036
aF8.510107040405273
aF8.417028903961182
aF8.382500886917114
aF8.488752841949463
aF8.952039957046509
aF8.682193040847778
aF8.713500022888184
aF8.844052076339722
aF8.642542123794556
aF8.814239025115967
aF8.782896995544434
aF8.538180828094482
aF8.786595821380615
aF8.777745008468628
aF8.220627784729004
aF8.70402193069458
aF9.084277153015137
aF9.210088968276978
aF9.655652046203613
aF9.31416916847229
aF8.637026071548462
aF8.556920051574707
aF8.42953896522522
aF8.417343139648438
aF8.989836931228638
aF8.928157091140747
aF8.94545602798462
aF8.42687177658081
aF8.74744200706482
aF9.038020849227905
aF9.05827283859253
aF8.494072914123535
aF8.366774082183838
aF8.563326835632324
aF8.669892072677612
aF8.241874933242798
aF8.75465202331543
aF8.629584074020386
aF8.22191596031189
aF8.378309965133667
aF8.420369148254395
aF8.10361099243164
aF8.22053599357605
aF8.773334980010986
aF8.917661905288696
aF8.688302040100098
aF8.319362163543701
aF8.536195039749146
aF8.683944940567017
aF8.48872184753418
aF8.248432874679565
aF8.372550010681152
aF8.49965786933899
aF8.354240894317627
aF8.57052493095398
aF8.610482931137085
aF8.378870964050293
aF8.718843936920166
aF8.564144849777222
aF8.648574113845825
aF8.821111917495728
aF8.795245170593262
aF8.959266901016235
aF8.666259050369263
aF8.673978090286255
aF8.773094892501831
aF9.02293586730957
aF9.001729965209961
aF8.281148195266724
aF8.308147192001343
aF7.964723110198975
aF8.107399940490723
aF8.575253009796143
aF8.619562864303589
aF8.534485101699829
aF8.643041133880615
aF9.075170040130615
aF9.218392848968506
aF8.695315837860107
aF8.42452096939087
aF8.562453031539917
aF8.554642915725708
aF8.460957050323486
aF8.15665602684021
aF8.398138046264648
aF8.30306601524353
aF8.416146993637085
aF8.256326913833618
aF8.689237833023071
aF8.970103025436401
aF8.478135824203491
aF8.774517059326172
aF8.258713960647583
aF8.656639814376831
aF8.698599100112915
aF8.61930513381958
aF8.61392092704773
aF8.419620990753174
aF8.24269986152649
aF8.304388999938965
aF8.402211904525757
aF8.734663009643555
aF9.097434997558594
aF8.689393043518066
aF8.647552013397217
aF8.674830913543701
aF8.845963954925537
aF8.969744205474854
aF8.522426843643188
aF8.774118900299072
aF9.155532121658325
aF8.872087001800537
aF8.479984045028687
aF8.925745010375977
aF8.595614910125732
aF8.202550888061523
aF8.670567035675049
aF8.592715978622437
aF8.661527156829834
aF9.143632888793945
aF8.94496202468872
aF8.712435007095337
aF8.075745105743408
aF8.324877977371216
aF8.149434089660645
aF8.07276177406311
aF8.343446016311646
aF8.84159803390503
aF9.001873016357422
aF9.019086122512817
aF8.928487062454224
aF8.77341604232788
aF8.871129989624023
aF9.513910055160522
aF9.247287034988403
aF9.207390069961548
aF9.057003021240234
aF8.860854148864746
aF8.537537813186646
aF8.636571168899536
aF8.421552181243896
aF8.756185054779053
aF8.877588987350464
aF9.147599935531616
aF8.945812940597534
aF8.986329078674316
aF8.579872131347656
aF8.52098298072815
aF8.423351049423218
aF8.277359962463379
aF8.460142850875854
aF8.633111953735352
aF8.732623100280762
aF8.833422899246216
aF8.666220903396606
aF8.482546091079712
aF8.900487899780273
aF8.53468108177185
aF8.373070001602173
aF8.670324802398682
aF8.695544958114624
aF8.675371885299683
aF8.431740999221802
aF8.690741062164307
aF8.644378900527954
aF8.859092950820923
aF8.768176078796387
aF8.719388961791992
aF8.866569995880127
aF8.63686490058899
aF8.547477960586548
aF8.914358854293823
aF8.839174032211304
aF8.233469009399414
aF8.23104190826416
aF8.189260959625244
aF8.196974039077759
aF8.483105182647705
asg17
g1
sg18
(lp47
I207
aI256
aI309
aI364
aI398
aI421
aI452
aI439
aI449
aI445
aI462
aI483
aI512
aI504
aI501
aI502
aI504
aI511
aI480
aI467
aI489
aI516
aI533
aI515
aI509
aI507
aI506
aI505
aI489
aI515
aI516
aI529
aI504
aI498
aI494
aI496
aI476
aI500
aI496
aI514
aI507
aI524
aI522
aI531
aI537
aI521
aI505
aI528
aI528
aI487
aI466
aI487
aI506
aI501
aI499
aI498
aI495
aI510
aI527
aI500
aI496
aI490
aI495
aI494
aI505
aI507
aI510
aI505
aI521
aI500
aI488
aI485
aI493
aI496
aI494
aI498
aI517
aI507
aI507
aI518
aI507
aI500
aI511
aI500
aI509
aI513
aI485
aI522
aI534
aI536
aI562
aI540
aI500
aI493
aI497
aI492
aI524
aI523
aI523
aI496
aI512
aI521
aI518
aI489
aI495
aI498
aI504
aI480
aI507
aI505
aI483
aI491
aI502
aI480
aI488
aI516
aI520
aI500
aI488
aI517
aI524
aI510
aI489
aI498
aI506
aI500
aI503
aI512
aI497
aI515
aI515
aI521
aI523
aI527
aI534
aI512
aI504
aI516
aI534
aI533
aI490
aI489
aI470
aI470
aI505
aI502
aI495
aI492
aI522
aI534
aI505
aI489
aI501
aI499
aI498
aI478
aI494
aI494
aI496
aI487
aI492
aI519
aI501
aI518
aI493
aI507
aI508
aI507
aI497
aI480
aI471
aI479
aI489
aI510
aI511
aI501
aI503
aI511
aI511
aI515
aI493
aI502
aI534
aI516
aI497
aI521
aI506
aI479
aI507
aI509
aI510
aI520
aI524
aI501
aI475
aI492
aI470
aI472
aI487
aI516
aI522
aI524
aI520
aI520
aI536
aI560
aI540
aI524
aI523
aI507
aI493
aI505
aI480
aI513
aI519
aI534
aI518
aI511
aI492
aI507
aI497
aI488
aI498
aI512
aI512
aI515
aI502
aI496
aI514
aI503
aI499
aI511
aI511
aI513
aI497
aI511
aI511
aI525
aI520
aI515
aI510
aI509
aI494
aI512
aI504
aI476
aI479
aI479
aI480
aI481
asg20
(lp48
I208
aI258
aI310
aI365
aI399
aI424
aI454
aI440
aI452
aI446
aI465
aI484
aI513
aI508
aI505
aI506
aI508
aI514
aI481
aI472
aI496
aI521
aI537
aI521
aI514
aI512
aI511
aI511
aI494
aI518
aI522
aI535
aI509
aI502
aI499
aI498
aI477
aI503
aI501
aI517
aI510
aI526
aI527
aI533
aI541
aI528
aI511
aI532
aI533
aI493
aI475
aI496
aI511
aI508
aI503
aI503
aI498
aI516
aI532
aI507
aI502
aI492
aI497
aI498
aI509
aI509
aI514
aI510
aI525
aI503
aI493
aI492
aI496
aI500
aI498
aI504
aI519
aI508
aI512
aI522
aI511
aI507
aI514
aI504
aI512
aI515
aI490
aI527
aI538
aI540
aI567
aI548
aI503
aI497
aI499
aI496
aI528
aI527
aI527
aI499
aI514
aI522
aI523
aI494
aI502
aI503
aI509
aI483
aI511
aI510
aI489
aI497
aI507
aI485
aI494
aI519
aI525
aI504
aI492
aI519
aI530
aI518
aI494
aI502
aI512
aI504
aI508
aI517
aI501
aI520
aI522
aI526
aI529
aI531
aI536
aI517
aI509
aI519
aI538
aI538
aI496
aI494
aI473
aI473
aI510
aI507
aI497
aI495
aI525
aI541
aI512
aI495
aI506
aI500
aI500
aI482
aI498
aI499
aI500
aI490
aI494
aI522
aI507
aI525
aI497
aI510
aI512
aI511
aI505
aI486
aI475
aI483
aI493
aI515
aI518
aI506
aI510
aI517
aI516
aI522
aI497
aI505
aI539
aI520
aI502
aI525
aI511
aI483
aI512
aI514
aI515
aI525
aI529
aI508
aI481
aI497
aI473
aI476
aI493
aI521
aI528
aI530
aI528
aI525
aI539
aI565
aI542
aI530
aI528
aI509
aI496
aI509
aI485
aI515
aI521
aI537
aI522
aI516
aI497
aI511
aI500
aI492
aI502
aI518
aI516
aI518
aI504
aI500
aI519
aI506
aI502
aI518
aI516
aI519
aI500
aI515
aI514
aI531
aI525
aI518
aI513
aI514
aI497
aI516
aI505
aI482
aI483
aI483
aI484
aI485
asg22
(lp49
sg24
(lp50
I47
aI61
aI48
aI57
aI56
aI59
aI66
aI81
aI65
aI74
aI61
aI77
aI75
aI66
aI69
aI67
aI87
aI86
aI88
aI72
aI78
aI75
aI81
aI80
aI71
aI68
aI64
aI83
aI74
aI83
aI84
aI76
aI70
aI74
aI75
aI81
aI78
aI77
aI61
aI78
aI70
aI76
aI70
aI83
aI60
aI73
aI83
aI78
aI75
aI88
aI73
aI67
aI73
aI71
aI81
aI77
aI81
aI75
aI67
aI76
aI68
aI85
aI81
aI73
aI69
aI69
aI77
aI74
aI79
aI93
aI76
aI75
aI62
aI81
aI67
aI71
aI82
aI73
aI73
aI76
aI75
aI77
aI67
aI79
aI85
aI76
aI77
aI66
aI67
aI61
aI76
aI78
aI85
aI77
aI71
aI72
aI76
aI70
aI82
aI68
aI71
aI71
aI83
aI78
aI78
aI77
aI63
aI66
aI74
aI81
aI87
aI79
aI76
aI92
aI71
aI69
aI78
aI84
aI76
aI72
aI81
aI66
aI80
aI75
aI68
aI76
aI66
aI72
aI80
aI74
aI70
aI84
aI76
aI69
aI76
aI76
aI67
aI76
aI77
aI74
aI79
aI86
aI81
aI77
aI66
aI70
aI70
aI79
aI71
aI76
aI71
aI81
aI91
aI74
aI82
aI86
aI78
aI64
aI77
aI75
aI73
aI72
aI79
aI68
aI88
aI87
aI85
aI78
aI79
aI75
aI70
aI71
aI73
aI76
aI85
aI80
aI65
aI70
aI75
aI74
aI73
aI78
aI72
aI78
aI89
aI75
aI80
aI66
aI79
aI62
aI80
aI69
aI84
aI76
aI62
aI79
aI67
aI78
aI71
aI77
aI69
aI72
aI77
aI68
aI76
aI78
aI71
aI73
aI88
aI75
aI69
aI72
aI85
aI69
aI84
aI65
aI88
aI71
aI83
aI72
aI79
aI85
aI84
aI67
aI83
aI79
aI82
aI85
aI82
aI76
aI78
aI69
aI84
aI66
aI85
aI74
aI89
aI81
aI64
aI81
aI65
aI67
aI85
aI79
aI77
aI77
aI73
aI82
aI72
aI75
asg26
g27
sg28
(lp51
F0.41274845225614454
aF0.4323809404815705
aF0.45156618531784765
aF0.4720068815339216
aF0.4906347524296912
aF0.4896068784000927
aF0.4855719349995883
aF0.48000972697005057
aF0.48764889081923624
aF0.5002025557670534
aF0.4901103192014064
aF0.47724770990395876
aF0.4875678956233427
aF0.4869921222176645
aF0.4930243089601683
aF0.5057278202973472
aF0.5117317717248089
aF0.5026314988121963
aF0.5135580408106433
aF0.5086094162071412
aF0.4974371147708712
aF0.47950315084096623
aF0.4773878252840628
aF0.46755633450666223
aF0.45970095580638987
aF0.4737269126749757
aF0.4706433532481823
aF0.46451030618916445
aF0.4500961919332974
aF0.45855302746744603
aF0.4425198427039289
aF0.4398283790543241
aF0.4497776946059809
aF0.45699113763421556
aF0.46227195800625553
aF0.4588534801907691
aF0.4497743320143111
aF0.4467174812121445
aF0.44637228100286125
aF0.46589790995195907
aF0.4675401820990576
aF0.46290561637253574
aF0.46000534980425006
aF0.45920288882808075
aF0.45898793959165496
aF0.4653315029798744
aF0.4557331672702136
aF0.44961403192329974
aF0.43772847375022617
aF0.45947034499667433
aF0.46823986044745597
aF0.46011970517973266
aF0.45365158564871383
aF0.4718589967835578
aF0.46772179284313886
aF0.46604294490484705
aF0.4649875559233313
aF0.4638700887081875
aF0.45220034005134163
aF0.46184818683289847
aF0.44715521257668916
aF0.4573278207934972
aF0.46149380011169766
aF0.4721570450481824
aF0.45651804925977524
aF0.45277311381028545
aF0.4580597485577645
aF0.46227735505192746
aF0.46099216524136155
aF0.4545549569440179
aF0.44793381761145235
aF0.44012049636343453
aF0.43996510562793606
aF0.4444856844959286
aF0.4451472574612697
aF0.44821487944782884
aF0.4566552583268846
aF0.457373397214286
aF0.45727849843562746
aF0.4521537430919969
aF0.45808281032257975
aF0.4575467873877278
aF0.4510233500415484
aF0.44561998236793976
aF0.437422454883745
aF0.4405587711542735
aF0.4560833978906234
aF0.4534727207896246
aF0.4481336102610026
aF0.4566966704202335
aF0.4431763739345674
aF0.45163373095188053
aF0.4627111050960052
aF0.46728254000249636
aF0.4728378582093491
aF0.4640296017734995
aF0.4490778273612885
aF0.4467382627313354
aF0.44392849510928145
aF0.45263945295373714
aF0.3383482763132076
aF0.3407357212402429
aF0.3371251703430686
aF0.33821065529593847
aF0.3360757759920748
aF0.3372805458644929
aF0.33580778163831715
aF0.33897209328839695
aF0.3390810605031749
aF0.33783173810249806
aF0.3374664588752144
aF0.34019005188389634
aF0.3378177845466193
aF0.33950296203396735
aF0.3395337559729165
aF0.33782842664366625
aF0.33640385761216646
aF0.3400071282910628
aF0.33746680993013217
aF0.33944549528666523
aF0.34013244292965783
aF0.3388552613979074
aF0.3370936197142401
aF0.3388032094717159
aF0.33637448094161676
aF0.338582979779153
aF0.341216801132086
aF0.3381378908481222
aF0.34001331411304264
aF0.3361075206156326
aF0.3399235548080898
aF0.340777266188835
aF0.3386376622003209
aF0.3393371697952845
aF0.33936732196527813
aF0.3417125061682513
aF0.33945902239362596
aF0.33909273809254464
aF0.337800932996188
aF0.33664151504543216
aF0.3392623054322049
aF0.338938927117489
aF0.33802716705536756
aF0.34053208045483974
aF0.33871314695954324
aF0.3381640541713082
aF0.34018345608127
aF0.33854639061495767
aF0.338176831217047
aF0.3379627561890484
aF0.3397958950945764
aF0.3396360044632948
aF0.33910458370478325
aF0.3374461979913941
aF0.3369609441371939
aF0.33729541212746156
aF0.33656959893673477
aF0.33820898622453294
aF0.3390925103268954
aF0.33874863190605375
aF0.33670376971730215
aF0.3401254906158375
aF0.338174383037206
aF0.3392104741603808
aF0.34062966164504715
aF0.33675779253485966
aF0.34195246640845656
aF0.33910857020890195
aF0.33762912158422753
aF0.33953893601753576
aF0.34008994444503204
aF0.33993830097961747
aF0.33874863190605387
aF0.33799103022363736
aF0.3365966802983067
aF0.33856806928734307
aF0.34002098957219407
aF0.3412983766808029
aF0.33836524509824495
aF0.33835249163246833
aF0.3381796597404364
aF0.3379845901263295
aF0.33799539870954765
aF0.3377960288256149
aF0.33799233677575286
aF0.3397028873487342
aF0.33906196164205604
aF0.3391925284017052
aF0.3407230306975478
aF0.3399120589527921
aF0.3407309076992452
aF0.33916758781057554
aF0.33899896985328737
aF0.3397096676779461
aF0.33824497008766363
aF0.33800692743635363
aF0.3402066813014262
aF0.3382184266729627
aF0.33894774323885135
aF0.337446197991394
aF0.3365888325598027
aF0.3363942817185178
aF0.3366080640222742
aF0.33781352323291275
aF0.3381426502026407
aF0.33977686920710143
aF0.3395260321894961
aF0.34023193803618823
aF0.33730870647277394
aF0.3379827141194123
aF0.34002577584178845
aF0.33659429186785195
aF0.3387647911357642
aF0.3363965441817576
aF0.3379733736235182
aF0.33850006895714413
aF0.33763985434605204
aF0.33867343364308283
aF0.3381709072135981
aF0.33980150296355766
aF0.3388956164358025
aF0.3379858659370758
aF0.34109587544456194
aF0.33869844917569025
aF0.3386984491756899
aF0.33726545206038006
aF0.34048272963242976
aF0.3382469670179043
aF0.33940640034182795
aF0.33975737546993423
aF0.33981009349397556
aF0.33801778902366514
aF0.33942968065477847
aF0.3376235654937909
aF0.33861154213562916
aF0.33708384338029174
aF0.3386706059111666
aF0.33921162336408933
aF0.3376187281982711
aF0.33802259968851256
aF0.33997240859897143
aF0.3388887308374918
aF0.3389368361305161
aF0.3379858659370758
aF0.33977923057611426
aF0.3380164083689976
aF0.33633387828267475
aF0.3383969177913444
aF0.3393793469422987
aF0.34039428696327345
asba(iparams
Statistics
p52
(dp53
g8
(lp54
I18
aI18
aI20
aI20
aI23
aI21
aI35
aI40
aI36
aI55
aI62
aI56
aI72
aI77
aI67
aI82
aI74
aI79
aI83
aI68
aI66
aI78
aI78
aI61
aI77
aI79
aI84
aI72
aI83
aI63
aI78
aI66
aI75
aI64
aI79
aI74
aI87
aI74
aI66
aI84
aI87
aI84
aI81
aI89
aI85
aI79
aI84
aI86
aI79
aI70
aI65
aI95
aI78
aI97
aI74
aI86
aI75
aI80
aI87
aI72
aI67
aI88
aI75
aI79
aI73
aI84
aI76
aI77
aI86
aI84
aI67
aI83
aI73
aI63
aI89
aI84
aI84
aI69
aI100
aI77
aI71
aI78
aI86
aI65
aI76
aI82
aI93
aI81
aI67
aI70
aI81
aI75
aI78
aI71
aI60
aI86
aI66
aI78
aI74
aI84
aI80
aI82
aI60
aI68
aI89
aI75
aI81
aI85
aI81
aI82
aI67
aI82
aI74
aI76
aI92
aI71
aI91
aI85
aI89
aI87
aI81
aI75
aI84
aI79
aI85
aI98
aI84
aI77
aI81
aI80
aI68
aI75
aI88
aI83
aI75
aI93
aI91
aI77
aI69
aI65
aI78
aI74
aI79
aI77
aI89
aI81
aI82
aI73
aI90
aI83
aI72
aI89
aI60
aI83
aI88
aI77
aI80
aI93
aI75
aI72
aI88
aI80
aI74
aI75
aI77
aI80
aI78
aI76
aI77
aI72
aI82
aI75
aI89
aI75
aI74
aI83
aI83
aI80
aI81
aI74
aI69
aI78
aI77
aI88
aI84
aI86
aI82
aI69
aI76
aI70
aI76
aI95
aI84
aI74
aI92
aI71
aI66
aI79
aI69
aI68
aI83
aI91
aI68
aI82
aI69
aI79
aI73
aI71
aI76
aI66
aI72
aI82
aI88
aI80
aI73
aI75
aI69
aI79
aI62
aI68
aI61
aI79
aI69
aI88
aI77
aI70
aI93
aI72
aI83
aI84
aI82
aI72
aI79
aI75
aI76
aI78
aI82
aI83
aI86
aI67
aI79
aI88
aI94
aI66
aI75
aI78
aI76
aI95
aI76
aI78
asg10
g11
sg12
(lp55
I230
aI289
aI364
aI416
aI430
aI476
aI466
aI477
aI478
aI490
aI511
aI517
aI510
aI529
aI513
aI530
aI548
aI536
aI542
aI525
aI539
aI548
aI544
aI546
aI546
aI553
aI558
aI564
aI514
aI532
aI526
aI516
aI521
aI521
aI534
aI553
aI552
aI546
aI560
aI580
aI562
aI539
aI535
aI560
aI573
aI547
aI548
aI561
aI532
aI546
aI534
aI538
aI530
aI533
aI540
aI551
aI573
aI573
aI574
aI541
aI557
aI569
aI533
aI541
aI546
aI533
aI546
aI541
aI556
aI547
aI539
aI553
aI524
aI525
aI532
aI512
aI542
aI537
aI550
aI519
aI525
aI550
aI532
aI514
aI564
aI527
aI551
aI532
aI533
aI539
aI554
aI520
aI541
aI516
aI514
aI553
aI532
aI547
aI548
aI552
aI537
aI560
aI557
aI541
aI575
aI554
aI524
aI518
aI552
aI530
aI555
aI545
aI551
aI556
aI588
aI564
aI554
aI545
aI569
aI578
aI546
aI535
aI539
aI542
aI558
aI561
aI535
aI531
aI560
aI546
aI579
aI563
aI562
aI533
aI554
aI569
aI549
aI521
aI520
aI541
aI551
aI525
aI547
aI545
aI545
aI553
aI561
aI576
aI571
aI548
aI556
aI526
aI532
aI538
aI582
aI567
aI572
aI576
aI556
aI555
aI555
aI534
aI555
aI555
aI565
aI556
aI541
aI554
aI540
aI538
aI573
aI560
aI551
aI553
aI540
aI568
aI556
aI564
aI526
aI513
aI544
aI528
aI539
aI550
aI575
aI573
aI569
aI539
aI533
aI515
aI552
aI545
aI551
aI556
aI591
aI532
aI526
aI536
aI520
aI531
aI549
aI536
aI537
aI528
aI515
aI531
aI533
aI529
aI535
aI530
aI541
aI547
aI533
aI550
aI547
aI565
aI542
aI541
aI525
aI541
aI543
aI549
aI549
aI554
aI554
aI561
aI564
aI554
aI557
aI562
aI557
aI527
aI564
aI544
aI535
aI546
aI564
aI542
aI553
aI533
aI563
aI563
aI552
aI542
aI554
aI557
aI556
aI540
aI540
aI532
asg14
(lp56
I230
aI289
aI364
aI416
aI430
aI476
aI466
aI477
aI478
aI490
aI511
aI517
aI510
aI529
aI513
aI530
aI548
aI536
aI542
aI525
aI539
aI548
aI544
aI546
aI546
aI553
aI558
aI564
aI514
aI532
aI526
aI516
aI521
aI521
aI534
aI553
aI552
aI546
aI560
aI580
aI562
aI539
aI535
aI560
aI573
aI547
aI548
aI561
aI532
aI546
aI534
aI538
aI530
aI533
aI540
aI551
aI573
aI573
aI574
aI541
aI557
aI569
aI533
aI541
aI546
aI533
aI546
aI541
aI556
aI547
aI539
aI553
aI524
aI525
aI532
aI512
aI542
aI537
aI550
aI519
aI525
aI550
aI532
aI514
aI564
aI527
aI551
aI532
aI533
aI539
aI554
aI520
aI541
aI516
aI514
aI553
aI532
aI547
aI548
aI552
aI537
aI560
aI557
aI541
aI575
aI554
aI524
aI518
aI552
aI530
aI555
aI545
aI551
aI556
aI588
aI564
aI554
aI545
aI569
aI578
aI546
aI535
aI539
aI542
aI558
aI561
aI535
aI531
aI560
aI546
aI579
aI563
aI562
aI533
aI554
aI569
aI549
aI521
aI520
aI541
aI551
aI525
aI547
aI545
aI545
aI553
aI561
aI576
aI571
aI548
aI556
aI526
aI532
aI538
aI582
aI567
aI572
aI576
aI556
aI555
aI555
aI534
aI555
aI555
aI565
aI556
aI541
aI554
aI540
aI538
aI573
aI560
aI551
aI553
aI540
aI568
aI556
aI564
aI526
aI513
aI544
aI528
aI539
aI550
aI575
aI573
aI569
aI539
aI533
aI515
aI552
aI545
aI551
aI556
aI591
aI532
aI526
aI536
aI520
aI531
aI549
aI536
aI537
aI528
aI515
aI531
aI533
aI529
aI535
aI530
aI541
aI547
aI533
aI550
aI547
aI565
aI542
aI541
aI525
aI541
aI543
aI549
aI549
aI554
aI554
aI561
aI564
aI554
aI557
aI562
aI557
aI527
aI564
aI544
aI535
aI546
aI564
aI542
aI553
aI533
aI563
aI563
aI552
aI542
aI554
aI557
aI556
aI540
aI540
aI532
asg5
(lp57
F3.7455968856811523
aF4.997366905212402
aF6.351318836212158
aF7.949083089828491
aF8.369478940963745
aF9.44481110572815
aF9.833186864852905
aF9.733088970184326
aF9.978302955627441
aF10.408390045166016
aF10.49186897277832
aF10.844990968704224
aF11.074554920196533
aF11.133311033248901
aF10.826003074645996
aF11.393876075744629
aF11.30285120010376
aF11.538925170898438
aF11.5463228225708
aF11.067899942398071
aF11.071442127227783
aF11.42856502532959
aF11.24770998954773
aF11.268295049667358
aF11.428970098495483
aF11.378192901611328
aF11.679112195968628
aF11.872000932693481
aF11.165207862854004
aF11.267098903656006
aF11.104011058807373
aF11.044238090515137
aF11.245134830474854
aF11.13766098022461
aF11.469231843948364
aF11.691295862197876
aF11.699421882629395
aF11.863899946212769
aF12.341912984848022
aF12.58494782447815
aF12.32694697380066
aF11.555576086044312
aF11.583395004272461
aF12.403551816940308
aF12.49101209640503
aF11.959053039550781
aF12.268089056015015
aF12.121018886566162
aF11.201791048049927
aF11.322837114334106
aF11.605398893356323
aF11.484249114990234
aF11.201905965805054
aF11.698562860488892
aF11.482058048248291
aF11.703800916671753
aF12.251811027526855
aF12.80306601524353
aF12.50710415840149
aF11.765568971633911
aF11.948163986206055
aF12.254374027252197
aF11.580659866333008
aF11.878731966018677
aF11.646599054336548
aF11.485105991363525
aF11.55411982536316
aF11.751837015151978
aF11.69221806526184
aF11.79113507270813
aF11.488422870635986
aF11.700325012207031
aF11.534860849380493
aF11.533632040023804
aF11.44343900680542
aF11.485381841659546
aF11.625515937805176
aF11.700232028961182
aF11.841038942337036
aF11.297648191452026
aF11.280736923217773
aF11.557885885238647
aF11.605299949645996
aF10.988468885421753
aF11.596889019012451
aF11.353734970092773
aF11.70566201210022
aF11.327623844146729
aF11.22095012664795
aF11.489269018173218
aF11.484601020812988
aF11.231289863586426
aF11.414732933044434
aF11.115116119384766
aF11.05293583869934
aF11.588123083114624
aF11.218120098114014
aF11.562021017074585
aF11.676973104476929
aF11.538026094436646
aF11.455744981765747
aF11.964513063430786
aF11.445481061935425
aF12.14869499206543
aF12.283652782440186
aF11.954793930053711
aF11.545393943786621
aF11.48503589630127
aF11.914353847503662
aF11.799123048782349
aF12.036099910736084
aF11.921276092529297
aF11.902663946151733
aF11.798449993133545
aF12.040158033370972
aF12.09725284576416
aF12.116774082183838
aF12.209208011627197
aF12.252952098846436
aF12.096302032470703
aF11.906583070755005
aF11.74620008468628
aF11.35048508644104
aF11.653710842132568
aF11.894864082336426
aF12.470902919769287
aF11.559271097183228
aF12.195345163345337
aF12.155910968780518
aF12.067791938781738
aF12.213924884796143
aF12.027466058731079
aF11.826088905334473
aF11.46756100654602
aF11.906333208084106
aF12.379400968551636
aF11.817456007003784
aF11.14369511604309
aF11.361023902893066
aF11.588106870651245
aF11.735116004943848
aF11.613955020904541
aF11.673194885253906
aF11.762887001037598
aF11.693722009658813
aF11.477559089660645
aF11.78940486907959
aF12.271393060684204
aF12.207276105880737
aF11.590587854385376
aF11.831459999084473
aF11.28138279914856
aF11.377538919448853
aF11.84355092048645
aF12.250181913375854
aF12.2069730758667
aF12.320851802825928
aF12.461164951324463
aF12.2086660861969
aF12.168814897537231
aF12.072450160980225
aF11.534802198410034
aF11.753787994384766
aF11.767879009246826
aF11.758311986923218
aF11.657220840454102
aF11.763500928878784
aF12.299620151519775
aF11.67250394821167
aF11.801171064376831
aF11.918124198913574
aF11.923140048980713
aF11.860502004623413
aF11.613969087600708
aF11.848944902420044
aF12.202587842941284
aF11.934967041015625
aF11.782950162887573
aF11.653045892715454
aF11.47282099723816
aF11.44330906867981
aF11.339632034301758
aF11.58782410621643
aF11.872236013412476
aF12.20724892616272
aF12.10878610610962
aF11.989987134933472
aF11.541851043701172
aF11.301941156387329
aF10.887619972229004
aF11.759949922561646
aF11.58871603012085
aF11.657909154891968
aF11.924146890640259
aF12.123756885528564
aF11.55631685256958
aF11.52369999885559
aF11.510066986083984
aF11.377050876617432
aF11.389042139053345
aF12.034668922424316
aF11.857213020324707
aF11.67119312286377
aF11.689442873001099
aF11.335468053817749
aF11.380635976791382
aF11.491405963897705
aF11.591351985931396
aF11.415327072143555
aF11.298379898071289
aF11.571880102157593
aF11.565211057662964
aF11.398010969161987
aF12.092283010482788
aF11.719572067260742
aF11.753514051437378
aF11.91690707206726
aF11.81941294670105
aF11.149921894073486
aF11.598518133163452
aF11.502197980880737
aF11.583793878555298
aF11.969531059265137
aF12.398591995239258
aF11.75835108757019
aF11.994664907455444
aF12.100368976593018
aF11.789983987808228
aF12.149702072143555
aF12.22144103050232
aF11.985981941223145
aF11.64094591140747
aF11.961184024810791
aF11.639318943023682
aF11.661333084106445
aF11.74936294555664
aF11.812956809997559
aF11.460843086242676
aF11.619521856307983
aF11.24258804321289
aF12.365108013153076
aF12.05613112449646
aF11.739613056182861
aF11.91501498222351
aF11.73166298866272
aF11.948860168457031
aF11.97658896446228
aF11.88824200630188
aF11.611883878707886
aF11.446670055389404
asg17
g1
sg18
(lp58
I249
aI331
aI421
aI503
aI521
aI576
aI584
aI592
aI599
aI615
aI630
aI646
aI663
aI668
aI659
aI684
aI689
aI690
aI685
aI653
aI670
aI694
aI675
aI677
aI685
aI694
aI696
aI709
aI663
aI670
aI662
aI653
aI651
aI663
aI671
aI702
aI700
aI705
aI712
aI738
aI728
aI683
aI690
aI739
aI750
aI717
aI718
aI716
aI670
aI671
aI681
aI669
aI682
aI703
aI678
aI701
aI729
aI751
aI743
aI699
aI717
aI715
aI683
aI686
aI689
aI692
aI690
aI703
aI699
aI707
aI691
aI699
aI672
aI669
aI681
aI665
aI676
aI682
aI702
aI673
aI676
aI692
aI687
aI659
aI687
aI687
aI694
aI675
aI670
aI684
aI684
aI663
aI677
aI656
aI654
aI685
aI672
aI682
aI694
aI694
aI685
aI712
aI683
aI697
aI726
aI700
aI674
aI678
aI718
aI691
aI702
aI696
aI709
aI706
aI727
aI719
aI721
aI713
aI727
aI717
aI704
aI691
aI676
aI688
aI714
aI733
aI700
aI718
aI720
aI711
aI722
aI707
aI707
aI696
aI713
aI732
aI711
aI664
aI666
aI686
aI707
aI698
aI699
aI709
aI693
aI698
aI713
aI734
aI736
aI690
aI710
aI670
aI686
aI706
aI737
aI727
aI731
aI744
aI716
aI726
aI719
aI693
aI697
aI703
aI698
aI698
aI706
aI722
aI696
aI700
aI707
aI708
aI707
aI693
aI709
aI713
aI707
aI695
aI679
aI672
aI669
aI666
aI692
aI704
aI726
aI726
aI711
aI680
aI666
aI641
aI696
aI699
aI688
aI704
aI717
aI678
aI684
aI673
aI677
aI684
aI714
aI697
aI690
aI685
aI661
aI664
aI677
aI684
aI675
aI664
aI685
aI683
aI683
aI702
aI698
aI695
aI691
aI691
aI668
aI686
aI688
aI673
aI693
aI719
aI704
aI712
aI723
aI700
aI720
aI721
aI709
aI687
aI708
aI687
aI691
aI699
aI699
aI691
aI697
aI667
aI731
aI721
aI697
aI694
aI683
aI704
aI713
aI700
aI680
aI683
asg20
(lp59
I250
aI332
aI422
aI504
aI522
aI576
aI586
aI593
aI602
aI617
aI634
aI649
aI666
aI669
aI666
aI689
aI694
aI697
aI691
aI661
aI677
aI697
aI678
aI684
aI688
aI697
aI702
aI715
aI672
aI679
aI666
aI656
aI655
aI669
aI676
aI711
aI708
aI711
aI720
aI745
aI732
aI691
aI697
aI745
aI754
aI726
aI722
aI724
aI677
aI679
aI689
aI675
aI687
aI710
aI683
aI706
aI737
aI754
aI751
aI708
aI724
aI722
aI691
aI694
aI697
aI698
aI694
aI708
aI707
aI717
aI697
aI703
aI676
aI672
aI687
aI672
aI681
aI690
aI709
aI678
aI681
aI697
aI693
aI664
aI691
aI692
aI701
aI683
aI677
aI690
aI691
aI668
aI683
aI660
aI661
aI690
aI678
aI688
aI699
aI697
aI692
aI720
aI688
aI705
aI732
aI707
aI680
aI683
aI721
aI698
aI707
aI699
aI713
aI710
aI740
aI724
aI728
aI720
aI732
aI720
aI710
aI701
aI685
aI695
aI718
aI738
aI704
aI724
aI724
aI717
aI727
aI713
aI715
aI702
aI720
aI740
aI716
aI669
aI671
aI691
aI710
aI702
aI704
aI712
aI699
aI703
aI718
aI738
aI741
aI697
aI717
aI677
aI689
aI712
aI741
aI733
aI737
aI752
aI722
aI732
aI726
aI699
aI704
aI710
aI705
aI706
aI712
aI726
aI702
aI705
aI715
aI716
aI715
aI699
aI718
aI720
aI714
aI703
aI687
aI676
aI675
aI671
aI694
aI710
aI732
aI733
aI716
aI687
aI671
aI648
aI701
aI706
aI693
aI713
aI723
aI685
aI690
aI677
aI680
aI692
aI721
aI702
aI697
aI689
aI667
aI670
aI682
aI690
aI679
aI673
aI690
aI687
aI685
aI706
aI701
aI701
aI697
aI698
aI677
aI696
aI693
aI676
aI699
aI726
aI711
aI720
aI727
aI707
aI727
aI728
aI717
aI695
aI711
aI691
aI700
aI706
aI705
aI698
aI702
aI673
aI736
aI726
aI703
aI697
aI687
aI711
aI719
aI704
aI686
aI691
asg22
(lp60
sg24
(lp61
I48
aI58
aI68
aI80
aI82
aI84
aI82
aI96
aI96
aI108
aI87
aI101
aI99
aI97
aI101
aI100
aI95
aI95
aI118
aI103
aI93
aI101
aI91
aI117
aI97
aI97
aI108
aI106
aI117
aI106
aI90
aI108
aI89
aI105
aI91
aI96
aI82
aI102
aI94
aI96
aI110
aI102
aI89
aI75
aI99
aI97
aI97
aI95
aI97
aI117
aI109
aI81
aI91
aI108
aI97
aI71
aI102
aI98
aI107
aI113
aI93
aI108
aI101
aI101
aI100
aI90
aI94
aI94
aI95
aI82
aI99
aI107
aI109
aI97
aI99
aI103
aI95
aI101
aI91
aI107
aI93
aI93
aI94
aI115
aI120
aI93
aI99
aI96
aI103
aI104
aI95
aI98
aI106
aI108
aI104
aI93
aI85
aI105
aI98
aI98
aI87
aI82
aI114
aI88
aI92
aI124
aI104
aI93
aI108
aI94
aI99
aI83
aI85
aI99
aI87
aI114
aI98
aI91
aI101
aI98
aI94
aI105
aI88
aI96
aI97
aI92
aI100
aI80
aI89
aI96
aI103
aI101
aI90
aI100
aI105
aI102
aI99
aI109
aI93
aI90
aI98
aI96
aI96
aI107
aI92
aI88
aI93
aI95
aI101
aI108
aI107
aI96
aI88
aI98
aI81
aI101
aI94
aI74
aI100
aI114
aI92
aI112
aI94
aI102
aI98
aI92
aI101
aI97
aI99
aI101
aI110
aI116
aI89
aI98
aI93
aI97
aI95
aI111
aI91
aI106
aI96
aI95
aI102
aI86
aI90
aI103
aI102
aI107
aI100
aI104
aI93
aI88
aI91
aI94
aI102
aI110
aI116
aI104
aI96
aI115
aI102
aI90
aI100
aI111
aI105
aI105
aI96
aI99
aI106
aI103
aI99
aI90
aI108
aI94
aI106
aI105
aI115
aI104
aI97
aI98
aI98
aI100
aI90
aI93
aI94
aI95
aI111
aI101
aI104
aI99
aI99
aI85
aI92
aI105
aI98
aI91
aI106
aI111
aI90
aI107
aI89
aI83
aI84
aI103
aI99
aI104
aI101
aI97
aI89
aI84
asg26
g27
sg28
(lp62
F0.3940052203375338
aF0.4094310794007446
aF0.4259330534618182
aF0.43894354175596817
aF0.4435651515259629
aF0.45172338245253707
aF0.4475859640594062
aF0.46435931630402494
aF0.45267456498456826
aF0.45233243517514565
aF0.46053754989171647
aF0.4527781089059282
aF0.4698769569691749
aF0.4588683662818348
aF0.46237663036513366
aF0.4776124751566952
aF0.4698839976955941
aF0.4665844567684245
aF0.4697000894897179
aF0.45903878108475243
aF0.4596523399862214
aF0.4557363054865581
aF0.44083466232735613
aF0.4392817753479296
aF0.44320704069041855
aF0.4375658329648849
aF0.42800570523789433
aF0.4228385212067673
aF0.4223656397988932
aF0.426722869535801
aF0.4290885453136283
aF0.4247339850808479
aF0.438549683173082
aF0.4367363385930463
aF0.4355995070055899
aF0.44209679633693066
aF0.4504934458496757
aF0.4360992140469307
aF0.4226359742203258
aF0.41795298436075207
aF0.41650881687031077
aF0.4215562906409765
aF0.42817763890632216
aF0.42555880191598394
aF0.4214536825005034
aF0.4225941002693894
aF0.4276571942236875
aF0.41949142245038695
aF0.4285143728242387
aF0.43277761741438275
aF0.4329920366123496
aF0.430525613042308
aF0.4315323109551953
aF0.4368275145401983
aF0.43054003528136003
aF0.42179197556743786
aF0.42441361680084183
aF0.4191134147381499
aF0.42896434506605974
aF0.4283410095040211
aF0.42195876989329173
aF0.4193019142410665
aF0.4303549233018248
aF0.43261397790614947
aF0.42610303479509737
aF0.4349281926002846
aF0.4364858173923102
aF0.4279517280147596
aF0.4324433475210002
aF0.43812502128275393
aF0.4402608357680461
aF0.43666601379075565
aF0.4469220940174459
aF0.44237474398375154
aF0.4417876594559465
aF0.44645657038054526
aF0.4357845018571761
aF0.4356631474279587
aF0.4365776535821551
aF0.44222324106847244
aF0.43826166744544115
aF0.4245375098593788
aF0.43121081915342757
aF0.43035905073356645
aF0.4328308800810172
aF0.432180351151432
aF0.4181174253170779
aF0.41888943358831837
aF0.4328864442231737
aF0.4311352740761053
aF0.42678714524739075
aF0.4221157355763633
aF0.4291983236803718
aF0.4356226513942003
aF0.43344436569133626
aF0.43695562284193484
aF0.43446147939232793
aF0.43268033923835897
aF0.4282729719572484
aF0.42264797750628347
aF0.3374772118582487
aF0.3379884357844368
aF0.3385664148221088
aF0.3380228715354868
aF0.33759270323361434
aF0.33883150509159193
aF0.34064928888036405
aF0.3371852479227627
aF0.33706379685629134
aF0.33790731934908963
aF0.33966469727592613
aF0.33897839285613757
aF0.33801240559094803
aF0.33846184894496023
aF0.3372304753514272
aF0.3393600996241309
aF0.33992772590063014
aF0.3420580618943394
aF0.3361266800880404
aF0.33797154948638364
aF0.33648820199518414
aF0.3391800558209484
aF0.33815040291742343
aF0.33830193040727224
aF0.3389576198991638
aF0.3401822412481123
aF0.338880702913842
aF0.34046410069345506
aF0.3389522219637789
aF0.3381566259737751
aF0.33798502422171245
aF0.33827001143616525
aF0.3373259380843207
aF0.3390285121087215
aF0.33759825668142385
aF0.3376088829431109
aF0.3354175683089946
aF0.33687935357516924
aF0.33979800545228805
aF0.3404083169096833
aF0.33980346327395466
aF0.3361765500433327
aF0.33841766606668044
aF0.33608385218633324
aF0.34057170495574474
aF0.33744619799139486
aF0.3398819185590704
aF0.34025724101447585
aF0.3401343245535988
aF0.33624503385000387
aF0.33720308263968396
aF0.3407814316736109
aF0.3385877512399044
aF0.3388727038157613
aF0.3411126917576756
aF0.3374755709129125
aF0.3373280405302488
aF0.33731440408336383
aF0.33691503622727015
aF0.34006003538372326
aF0.3362451796621471
aF0.338188184698567
aF0.3385704516395168
aF0.33869222833821155
aF0.33437066087573925
aF0.33894807964838175
aF0.3377576231828039
aF0.33634997718235654
aF0.3371650376542617
aF0.33774388164437247
aF0.3406403449510314
aF0.3358343546537866
aF0.3399563498697371
aF0.3395203871209403
aF0.34014806276175136
aF0.3395992611598185
aF0.33937266075688544
aF0.33892677636246726
aF0.33991550059727016
aF0.3377421562410081
aF0.336345133460224
aF0.33789329476474295
aF0.33606868692690794
aF0.3402066813014272
aF0.33773920847583383
aF0.3369307949532564
aF0.3431830547824553
aF0.3388855066310226
aF0.34043715317252754
aF0.34024688251468
aF0.33897404839816125
aF0.3417642017011246
aF0.337063102843342
aF0.33922114904056133
aF0.33607553042534755
aF0.3421864104920621
aF0.3390495695209291
aF0.3390196558729901
aF0.3373002108932677
aF0.33704867364755825
aF0.33747653395951965
aF0.3344719832310516
aF0.33972355344700833
aF0.3387559457991284
aF0.3393786251886507
aF0.33903447186057567
aF0.33758862442859117
aF0.33703142927716506
aF0.33772998599522974
aF0.3406287392160555
aF0.33956639501290803
aF0.3403758256601225
aF0.3380471503565056
aF0.33937853630841763
aF0.3399594821992858
aF0.3366400391486418
aF0.3370260137237236
aF0.33788255121935756
aF0.3394705524187519
aF0.33788255121935756
aF0.33746153357749087
aF0.3362320537787672
aF0.340349985079817
aF0.3374612290802941
aF0.34033880870401945
aF0.34340018160126906
aF0.34094574686847506
aF0.33883150509159193
aF0.33977807082925926
aF0.3385416313569774
aF0.3369159898390548
aF0.33717390319290974
aF0.33639894288198585
aF0.3395547027499217
aF0.34186047695411065
aF0.33846519928614216
aF0.3401381586660719
aF0.3376016232944873
aF0.33895622728847413
aF0.33817395348554063
aF0.33800033722292927
aF0.3369216403699857
aF0.33871408579163675
aF0.3367766186396807
aF0.3354058150633475
aF0.3422611833695945
aF0.33460892341397874
aF0.3389925798456258
aF0.3371804584380585
aF0.33430692655799293
asba(iparams
Statistics
p63
(dp64
g8
(lp65
I13
aI15
aI15
aI17
aI18
aI29
aI45
aI36
aI62
aI64
aI81
aI79
aI72
aI87
aI84
aI92
aI100
aI107
aI83
aI105
aI99
aI116
aI102
aI108
aI102
aI106
aI91
aI101
aI106
aI91
aI100
aI98
aI93
aI98
aI97
aI95
aI108
aI100
aI86
aI106
aI109
aI109
aI94
aI105
aI93
aI111
aI104
aI106
aI94
aI95
aI95
aI105
aI106
aI101
aI111
aI123
aI92
aI115
aI90
aI128
aI89
aI90
aI98
aI103
aI93
aI112
aI121
aI102
aI99
aI97
aI102
aI97
aI96
aI104
aI87
aI92
aI111
aI103
aI108
aI93
aI107
aI96
aI106
aI94
aI118
aI106
aI91
aI98
aI98
aI104
aI111
aI108
aI104
aI90
aI113
aI100
aI109
aI107
aI116
aI98
aI93
aI103
aI113
aI113
aI96
aI102
aI100
aI100
aI112
aI97
aI93
aI96
aI99
aI97
aI114
aI103
aI112
aI91
aI109
aI95
aI103
aI119
aI94
aI99
aI89
aI99
aI93
aI102
aI85
aI104
aI96
aI109
aI109
aI103
aI112
aI88
aI103
aI96
aI102
aI93
aI83
aI109
aI111
aI115
aI109
aI114
aI112
aI106
aI94
aI102
aI98
aI107
aI119
aI95
aI85
aI107
aI109
aI91
aI107
aI92
aI104
aI107
aI103
aI103
aI108
aI97
aI82
aI89
aI82
aI115
aI97
aI120
aI97
aI101
aI106
aI111
aI105
aI81
aI107
aI107
aI105
aI106
aI99
aI105
aI98
aI86
aI115
aI98
aI110
aI107
aI94
aI91
aI93
aI105
aI87
aI96
aI91
aI110
aI101
aI115
aI95
aI99
aI113
aI97
aI105
aI105
aI97
aI105
aI98
aI113
aI104
aI103
aI101
aI82
aI99
aI100
aI112
aI101
aI108
aI97
aI93
aI97
aI103
aI94
aI106
aI105
aI92
aI106
aI98
aI114
aI108
aI106
aI88
aI99
aI113
aI101
aI110
aI117
aI103
aI105
aI94
aI99
aI97
aI100
aI103
aI105
aI104
aI111
aI98
aI112
asg10
g11
sg12
(lp66
I236
aI315
aI393
aI460
aI495
aI542
aI547
aI540
aI574
aI586
aI624
aI632
aI626
aI639
aI625
aI655
aI661
aI638
aI640
aI629
aI637
aI637
aI658
aI659
aI661
aI656
aI640
aI640
aI669
aI676
aI635
aI645
aI651
aI661
aI658
aI689
aI681
aI684
aI679
aI669
aI661
aI637
aI648
aI660
aI664
aI661
aI680
aI668
aI649
aI676
aI669
aI685
aI688
aI684
aI691
aI673
aI688
aI673
aI642
aI660
aI649
aI650
aI671
aI658
aI656
aI669
aI640
aI641
aI668
aI702
aI642
aI662
aI676
aI673
aI667
aI692
aI686
aI668
aI647
aI665
aI656
aI651
aI689
aI660
aI676
aI694
aI644
aI642
aI655
aI656
aI679
aI676
aI682
aI657
aI680
aI681
aI670
aI661
aI663
aI662
aI646
aI660
aI651
aI672
aI669
aI693
aI655
aI665
aI661
aI674
aI655
aI652
aI646
aI653
aI674
aI678
aI614
aI649
aI681
aI656
aI687
aI651
aI643
aI673
aI672
aI672
aI655
aI652
aI654
aI666
aI661
aI663
aI662
aI679
aI664
aI681
aI666
aI681
aI676
aI648
aI665
aI681
aI683
aI690
aI680
aI707
aI665
aI675
aI667
aI646
aI666
aI693
aI681
aI638
aI666
aI690
aI677
aI672
aI665
aI652
aI670
aI670
aI671
aI684
aI669
aI665
aI643
aI648
aI649
aI655
aI681
aI690
aI672
aI674
aI674
aI652
aI650
aI656
aI673
aI676
aI675
aI658
aI644
aI668
aI663
aI656
aI672
aI684
aI679
aI665
aI653
aI655
aI641
aI651
aI625
aI662
aI688
aI668
aI686
aI670
aI640
aI665
aI681
aI654
aI675
aI650
aI663
aI644
aI667
aI663
aI679
aI665
aI622
aI659
aI672
aI669
aI669
aI645
aI655
aI637
aI651
aI662
aI677
aI645
aI664
aI649
aI661
aI671
aI669
aI678
aI674
aI657
aI662
aI656
aI669
aI647
aI645
aI643
aI671
aI674
aI648
aI666
aI663
aI670
aI652
aI677
aI662
aI650
aI660
aI658
asg14
(lp67
I236
aI315
aI393
aI460
aI495
aI542
aI547
aI540
aI574
aI586
aI624
aI632
aI626
aI639
aI625
aI655
aI661
aI638
aI640
aI629
aI637
aI637
aI658
aI659
aI661
aI656
aI640
aI640
aI669
aI676
aI635
aI645
aI651
aI661
aI658
aI689
aI681
aI684
aI679
aI669
aI661
aI637
aI648
aI660
aI664
aI661
aI680
aI668
aI649
aI676
aI669
aI685
aI688
aI684
aI691
aI673
aI688
aI673
aI642
aI660
aI649
aI650
aI671
aI658
aI656
aI669
aI640
aI641
aI668
aI702
aI642
aI662
aI676
aI673
aI667
aI692
aI686
aI668
aI647
aI665
aI656
aI651
aI689
aI660
aI676
aI694
aI644
aI642
aI655
aI656
aI679
aI676
aI682
aI657
aI680
aI681
aI670
aI661
aI663
aI662
aI646
aI660
aI651
aI672
aI669
aI693
aI655
aI665
aI661
aI674
aI655
aI652
aI646
aI653
aI674
aI678
aI614
aI649
aI681
aI656
aI687
aI651
aI643
aI673
aI672
aI672
aI655
aI652
aI654
aI666
aI661
aI663
aI662
aI679
aI664
aI681
aI666
aI681
aI676
aI648
aI665
aI681
aI683
aI690
aI680
aI707
aI665
aI675
aI667
aI646
aI666
aI693
aI681
aI638
aI666
aI690
aI677
aI672
aI665
aI652
aI670
aI670
aI671
aI684
aI669
aI665
aI643
aI648
aI649
aI655
aI681
aI690
aI672
aI674
aI674
aI652
aI650
aI656
aI673
aI676
aI675
aI658
aI644
aI668
aI663
aI656
aI672
aI684
aI679
aI665
aI653
aI655
aI641
aI651
aI625
aI662
aI688
aI668
aI686
aI670
aI640
aI665
aI681
aI654
aI675
aI650
aI663
aI644
aI667
aI663
aI679
aI665
aI622
aI659
aI672
aI669
aI669
aI645
aI655
aI637
aI651
aI662
aI677
aI645
aI664
aI649
aI661
aI671
aI669
aI678
aI674
aI657
aI662
aI656
aI669
aI647
aI645
aI643
aI671
aI674
aI648
aI666
aI663
aI670
aI652
aI677
aI662
aI650
aI660
aI658
asg5
(lp68
F3.9487857818603516
aF5.398312091827393
aF7.157846927642822
aF8.899387836456299
aF10.25014615058899
aF11.022202014923096
aF11.635562181472778
aF11.568536043167114
aF12.310971975326538
aF12.564090967178345
aF13.371012210845947
aF13.51103401184082
aF13.98677682876587
aF14.27690601348877
aF14.164476871490479
aF14.718284845352173
aF14.826777935028076
aF14.398044109344482
aF14.202482223510742
aF14.206240177154541
aF14.208791017532349
aF14.281580924987793
aF14.859925031661987
aF14.884840965270996
aF14.768465995788574
aF14.356039047241211
aF14.367160081863403
aF14.498350143432617
aF15.268640041351318
aF14.7260160446167
aF14.362097978591919
aF15.315115928649902
aF14.975506067276001
aF14.85597014427185
aF14.86760401725769
aF15.117901802062988
aF15.38741397857666
aF15.424916982650757
aF15.133496046066284
aF14.804859161376953
aF14.764663934707642
aF14.199042081832886
aF14.746580123901367
aF14.912832975387573
aF15.236639976501465
aF15.180443048477173
aF15.318639039993286
aF14.914449214935303
aF14.687885999679565
aF15.381999969482422
aF15.12258505821228
aF15.55810809135437
aF15.639405965805054
aF15.779592990875244
aF15.465166091918945
aF15.493419885635376
aF15.41115403175354
aF14.948560953140259
aF14.277200937271118
aF14.870112895965576
aF14.476391077041626
aF14.6841299533844
aF15.28981900215149
aF15.11211895942688
aF14.905193090438843
aF15.303098917007446
aF14.926092863082886
aF14.579850912094116
aF14.738243103027344
aF15.493669986724854
aF14.469715118408203
aF14.884093046188354
aF15.210747003555298
aF14.842611074447632
aF15.000309944152832
aF15.398465871810913
aF15.03953504562378
aF14.723828077316284
aF14.525171995162964
aF14.82473611831665
aF14.754784107208252
aF14.846899032592773
aF15.474040031433105
aF15.131998062133789
aF15.307946920394897
aF15.392804145812988
aF14.674549102783203
aF14.32533597946167
aF14.402007102966309
aF14.975512981414795
aF15.148334980010986
aF15.011071920394897
aF14.99993109703064
aF15.203092098236084
aF15.552766799926758
aF15.611839056015015
aF15.071023941040039
aF15.265258073806763
aF15.405735969543457
aF14.703770875930786
aF14.823291063308716
aF15.484047889709473
aF15.38141393661499
aF14.972940921783447
aF14.471656084060669
aF14.611230850219727
aF14.536764860153198
aF14.817775011062622
aF14.997693061828613
aF14.68154001235962
aF14.648725986480713
aF14.650913000106812
aF14.49564504623413
aF14.79400897026062
aF14.950186014175415
aF15.153992176055908
aF14.200700998306274
aF14.549227952957153
aF14.872626066207886
aF14.323017120361328
aF15.176769018173218
aF14.523154973983765
aF14.302841901779175
aF15.2465660572052
aF15.406396865844727
aF15.50235104560852
aF14.946017026901245
aF14.666325092315674
aF14.744858026504517
aF14.869150161743164
aF15.18552303314209
aF15.186076879501343
aF14.692656993865967
aF14.944204807281494
aF14.473981857299805
aF15.014410018920898
aF15.605461120605469
aF15.566128969192505
aF15.15311598777771
aF14.379220008850098
aF14.871243000030518
aF15.669485092163086
aF15.307976961135864
aF15.673541069030762
aF15.764034986495972
aF15.750466108322144
aF15.211745023727417
aF14.891501903533936
aF14.553629875183105
aF14.774209976196289
aF14.78759479522705
aF15.696721076965332
aF15.771502017974854
aF14.682054042816162
aF14.878155946731567
aF15.35993218421936
aF14.97606110572815
aF15.225794076919556
aF14.53856897354126
aF15.000781059265137
aF15.126841068267822
aF15.02927303314209
aF15.007058143615723
aF14.84607195854187
aF14.946024894714355
aF14.642287969589233
aF14.356713056564331
aF14.474586009979248
aF14.641916036605835
aF15.003757953643799
aF15.32765793800354
aF15.198957920074463
aF15.165143013000488
aF15.423439979553223
aF15.243072986602783
aF14.909801006317139
aF15.005577087402344
aF14.867314100265503
aF15.447316884994507
aF15.702919960021973
aF15.128915071487427
aF14.663886785507202
aF14.144635915756226
aF14.777364015579224
aF14.781349182128906
aF14.8266441822052
aF15.1719229221344
aF15.37536907196045
aF15.269179105758667
aF14.588917970657349
aF14.73048996925354
aF14.204210996627808
aF14.47046709060669
aF14.340121984481812
aF14.364820957183838
aF14.980726957321167
aF15.231519222259521
aF15.348438024520874
aF15.492447853088379
aF15.15803599357605
aF14.479807138442993
aF15.223589181900024
aF15.257120847702026
aF14.586575031280518
aF15.155281066894531
aF14.860121965408325
aF14.789252996444702
aF15.010526895523071
aF15.137062072753906
aF15.08469009399414
aF15.17755389213562
aF14.655878067016602
aF14.441388130187988
aF14.683291912078857
aF15.107144832611084
aF15.139261960983276
aF15.297348976135254
aF14.900728940963745
aF14.718560934066772
aF14.50208306312561
aF14.59441614151001
aF14.828202962875366
aF14.518956899642944
aF14.683135986328125
aF14.680004835128784
aF14.601937055587769
aF14.942983150482178
aF15.382128953933716
aF14.985459804534912
aF14.915282964706421
aF14.69412112236023
aF14.370421171188354
aF14.579016923904419
aF14.73713207244873
aF14.919893026351929
aF14.61936902999878
aF14.618909120559692
aF14.43938684463501
aF14.829550981521606
aF14.989320993423462
aF14.651830911636353
aF14.577404022216797
aF14.885289907455444
aF15.40021800994873
aF15.0501070022583
aF15.211050033569336
aF15.002634048461914
aF14.710925817489624
aF14.977917909622192
aF14.612256050109863
asg17
g1
sg18
(lp69
I270
aI379
aI484
aI585
aI648
aI698
aI718
aI725
aI767
aI787
aI833
aI852
aI852
aI867
aI867
aI886
aI896
aI880
aI872
aI854
aI870
aI869
aI904
aI904
aI905
aI883
aI883
aI885
aI911
aI910
aI877
aI894
aI896
aI908
aI909
aI922
aI931
aI923
aI915
aI892
aI891
aI870
aI892
aI907
aI934
aI926
aI933
aI907
aI904
aI939
aI928
aI953
aI951
aI951
aI950
aI929
aI915
aI900
aI867
aI897
aI872
aI884
aI922
aI906
aI899
aI936
aI897
aI882
aI905
aI950
aI886
aI905
aI928
aI911
aI904
aI926
aI923
aI902
aI895
aI901
aI900
aI907
aI934
aI908
aI920
aI942
aI880
aI871
aI874
aI917
aI919
aI913
aI921
aI923
aI936
aI939
aI920
aI931
aI924
aI891
aI889
aI913
aI903
aI915
aI886
aI901
aI907
aI917
aI932
aI905
aI891
aI891
aI890
aI906
aI920
aI928
aI863
aI884
aI908
aI882
aI921
aI895
aI875
aI913
aI926
aI920
aI900
aI882
aI877
aI898
aI895
aI894
aI885
aI901
aI889
aI927
aI941
aI920
aI914
aI882
aI909
aI940
aI927
aI940
aI946
aI943
aI917
aI896
aI890
aI898
aI906
aI937
aI935
aI881
aI911
aI940
aI915
aI915
aI898
aI909
aI900
aI911
aI910
aI913
aI910
aI892
aI868
aI872
aI876
aI909
aI932
aI926
aI920
aI928
aI933
aI920
aI905
aI899
aI932
aI933
aI907
aI894
aI863
aI893
aI897
aI914
aI925
aI926
aI930
aI887
aI887
aI877
aI877
aI880
aI870
aI902
aI929
aI933
aI937
aI902
aI866
aI908
aI914
aI886
aI917
aI904
aI894
aI901
aI916
aI915
aI913
aI876
aI863
aI883
aI916
aI917
aI903
aI891
aI881
aI868
aI885
aI897
aI884
aI883
aI895
aI891
aI909
aI931
aI907
aI912
aI893
aI875
aI868
aI883
aI897
aI877
aI889
aI872
aI894
aI901
aI879
aI877
aI893
aI930
aI911
aI927
aI910
aI898
aI903
aI899
asg20
(lp70
I271
aI381
aI486
aI587
aI651
aI700
aI721
aI728
aI769
aI788
aI835
aI853
aI856
aI871
aI868
aI888
aI902
aI890
aI877
aI860
aI881
aI883
aI910
aI908
aI911
aI892
aI889
aI894
aI916
aI916
aI880
aI902
aI909
aI920
aI918
aI928
aI936
aI932
aI923
aI898
aI897
aI877
aI897
aI916
aI941
aI935
aI945
aI917
aI913
aI945
aI937
aI960
aI960
aI959
aI959
aI934
aI923
aI906
aI876
aI903
aI882
aI893
aI929
aI914
aI907
aI942
aI902
aI890
aI908
aI958
aI894
aI915
aI934
aI922
aI910
aI932
aI932
aI910
aI902
aI910
aI910
aI915
aI942
aI914
aI929
aI949
aI885
aI877
aI879
aI920
aI928
aI921
aI932
aI934
aI947
aI949
aI929
aI937
aI929
aI900
aI901
aI922
aI912
aI925
aI896
aI911
aI916
aI923
aI940
aI912
aI895
aI898
aI898
aI917
aI933
aI934
aI872
aI894
aI917
aI889
aI930
aI904
aI885
aI919
aI930
aI926
aI909
aI889
aI889
aI906
aI903
aI902
aI896
aI910
aI899
aI935
aI948
aI932
aI924
aI893
aI914
aI948
aI936
aI950
aI953
aI951
aI927
aI905
aI900
aI907
aI916
aI946
aI944
aI892
aI918
aI946
aI922
aI922
aI905
aI915
aI910
aI922
aI920
aI920
aI919
aI902
aI875
aI883
aI883
aI917
aI941
aI936
aI926
aI937
aI941
aI926
aI911
aI908
aI942
aI941
aI915
aI901
aI871
aI905
aI904
aI921
aI935
aI933
aI939
aI892
aI894
aI884
aI884
aI889
aI876
aI909
aI938
aI942
aI944
aI910
aI875
aI918
aI918
aI892
aI925
aI911
aI902
aI908
aI925
aI921
aI920
aI882
aI870
aI890
aI923
aI925
aI914
aI900
aI889
aI876
aI891
aI904
aI892
aI891
aI905
aI900
aI914
aI937
aI912
aI921
aI899
aI884
aI877
aI891
aI905
aI885
aI897
aI889
aI905
aI912
aI887
aI890
aI904
aI938
aI921
aI933
aI917
aI908
aI911
aI905
asg22
(lp71
sg24
(lp72
I63
aI86
aI90
aI102
aI102
aI107
aI117
aI120
aI112
aI121
aI93
aI110
aI121
aI122
aI115
aI129
aI122
aI113
aI146
aI121
aI117
aI102
aI108
aI120
aI129
aI109
aI124
aI114
aI124
aI128
aI127
aI117
aI118
aI113
aI112
aI110
aI117
aI123
aI134
aI124
aI128
aI119
aI117
aI117
aI126
aI117
aI117
aI113
aI122
aI113
aI102
aI142
aI99
aI106
aI127
aI123
aI117
aI127
aI140
aI112
aI108
aI114
aI116
aI114
aI115
aI130
aI124
aI112
aI115
aI123
aI117
aI113
aI114
aI125
aI128
aI113
aI115
aI122
aI131
aI120
aI113
aI136
aI115
aI121
aI100
aI132
aI134
aI125
aI109
aI110
aI115
aI110
aI115
aI111
aI127
aI108
aI112
aI133
aI129
aI115
aI129
aI121
aI116
aI123
aI123
aI121
aI106
aI117
aI106
aI115
aI129
aI93
aI123
aI117
aI126
aI136
aI128
aI121
aI104
aI117
aI133
aI105
aI120
aI110
aI117
aI136
aI133
aI119
aI119
aI112
aI129
aI119
aI98
aI130
aI109
aI118
aI115
aI124
aI111
aI102
aI132
aI114
aI111
aI114
aI115
aI135
aI126
aI124
aI111
aI120
aI129
aI102
aI123
aI117
aI121
aI111
aI119
aI126
aI118
aI137
aI128
aI113
aI123
aI132
aI116
aI115
aI129
aI124
aI135
aI114
aI105
aI106
aI127
aI116
aI118
aI120
aI118
aI122
aI113
aI111
aI121
aI123
aI131
aI106
aI134
aI131
aI116
aI130
aI129
aI123
aI111
aI134
aI132
aI100
aI120
aI112
aI117
aI119
aI139
aI129
aI120
aI95
aI103
aI124
aI134
aI108
aI127
aI118
aI118
aI123
aI122
aI126
aI120
aI114
aI113
aI131
aI130
aI117
aI118
aI117
aI127
aI125
aI110
aI121
aI116
aI91
aI121
aI121
aI137
aI108
aI125
aI117
aI120
aI124
aI106
aI131
aI129
aI113
aI114
aI125
aI125
aI107
aI107
aI108
aI122
aI110
aI126
aI110
aI130
aI110
asg26
g27
sg28
(lp73
F0.39435408719427434
aF0.40972889345401414
aF0.41886637601851195
aF0.42204623949992554
aF0.4314201936326561
aF0.4453728138598002
aF0.4360424188946825
aF0.44442842351624273
aF0.4377979763099761
aF0.44003218191967197
aF0.4349347931452044
aF0.43451445404482963
aF0.4407007655495556
aF0.4450038162469966
aF0.4374791556023076
aF0.43808674458009356
aF0.4395093958546923
aF0.44259385838717963
aF0.4399848170783193
aF0.4456268248677224
aF0.4433017407759356
aF0.4367995082587881
aF0.4275892578919598
aF0.4240991885097114
aF0.4133586100928378
aF0.4128180778062511
aF0.41279153123964746
aF0.41682518129553336
aF0.4088694984087733
aF0.4039118663541807
aF0.41557677803546594
aF0.4051571666096972
aF0.41588416103262454
aF0.41514429160817784
aF0.4085376518037086
aF0.4077388170981742
aF0.40713987820833347
aF0.40658717907077496
aF0.4098177738300426
aF0.4143549811005025
aF0.4151072302937085
aF0.41277578383527813
aF0.41451649608065305
aF0.4100987267910597
aF0.4140320365381364
aF0.41834885016679796
aF0.41990920324170183
aF0.42120141176204545
aF0.41867504264113725
aF0.41358322513117846
aF0.4104844592497842
aF0.406967415763546
aF0.39972430834263895
aF0.404762732361103
aF0.4150313515118079
aF0.4067901360056422
aF0.40393000081810543
aF0.4131454023488428
aF0.40730063926704574
aF0.4119130814411006
aF0.41695899072181936
aF0.41778379188909165
aF0.4094106021728702
aF0.4107051019919734
aF0.4172543138879912
aF0.4168008695439733
aF0.42626229752845557
aF0.4202282472876892
aF0.4131687317098588
aF0.4065571026621169
aF0.40761570790013
aF0.4115608544302614
aF0.4159791495722749
aF0.41600391977406104
aF0.41908817497494477
aF0.41231047045452307
aF0.41383840739291317
aF0.40734657516705297
aF0.41798673849926105
aF0.411950457029303
aF0.41470917934274276
aF0.408473012658171
aF0.4096246477390699
aF0.41835567625810544
aF0.4101889391575628
aF0.4038767456450437
aF0.407554459361247
aF0.4107427150661128
aF0.408618751889411
aF0.4153900762665513
aF0.411022350580996
aF0.4154546158660933
aF0.404279362798709
aF0.41126537703606353
aF0.4065235620922457
aF0.4040056880279195
aF0.40606847178408945
aF0.4125161610038533
aF0.4041846175902042
aF0.4030617684785194
aF0.3327714654921143
aF0.3353112833906513
aF0.3390005059070442
aF0.3360395958082326
aF0.3367778085700125
aF0.33804197771452743
aF0.3364539678750105
aF0.3379153414310251
aF0.34103162381333685
aF0.33455485689803827
aF0.3306209202092918
aF0.3361128799299544
aF0.33931201401521965
aF0.3354031679343687
aF0.3369695275279271
aF0.33806744072204553
aF0.33734968521529507
aF0.33677004190564036
aF0.3348061016673952
aF0.3379344717880476
aF0.3392263142645606
aF0.3364222883558612
aF0.33946618737038486
aF0.3382481597453796
aF0.3398308800372196
aF0.3345834268200087
aF0.3390687721507271
aF0.3372516505798906
aF0.3374065191664346
aF0.3355334780200142
aF0.3413635642820618
aF0.3380563761586354
aF0.33600576915403024
aF0.33575548389653204
aF0.33529906232423934
aF0.3395505401712312
aF0.3350900456763905
aF0.3325902862261406
aF0.33347738861649784
aF0.33329304620022066
aF0.33905689467953465
aF0.33334614318749256
aF0.33595110288435104
aF0.33700471763505174
aF0.3392187232140286
aF0.3370991504647311
aF0.337787207903131
aF0.33918250652234266
aF0.33678828899641033
aF0.3397305035989696
aF0.33744619799139497
aF0.3381034559223552
aF0.33592225613440285
aF0.3387811519847892
aF0.3352290362732772
aF0.33460983404911565
aF0.3400498318763231
aF0.3332788400379605
aF0.33725545376237126
aF0.3369151281108301
aF0.3345748812344226
aF0.33369331126172624
aF0.3398964848036837
aF0.33431287214782934
aF0.33842866386240994
aF0.3411116905268523
aF0.3346386326132906
aF0.34006205304127224
aF0.3367828727581059
aF0.3372652549546764
aF0.33190921872334234
aF0.3369202385585997
aF0.3352998400606033
aF0.33499302594974945
aF0.33621961197057215
aF0.338286761616674
aF0.33456488936693857
aF0.3365331200874975
aF0.33299613034684156
aF0.3355494543165579
aF0.33170909262236686
aF0.3366892312069268
aF0.33842801165282066
aF0.33793816630554835
aF0.33813319610022674
aF0.33700869994626853
aF0.33555055587690163
aF0.33351163313659854
aF0.3369730376197052
aF0.3361139005138613
aF0.33333759900604965
aF0.33654443939336964
aF0.33688003261131855
aF0.3385340647947498
aF0.33768912052267785
aF0.3356240145576126
aF0.3381324395504881
aF0.33850637956173035
aF0.3348146170320353
aF0.3350032375293525
aF0.3362064947335302
aF0.33553060174938065
aF0.3371362340757167
aF0.3378453551260721
aF0.3384953850861861
aF0.338522927323293
aF0.3402067503411263
aF0.3363450030057471
aF0.3399625692444985
aF0.3365553203417621
aF0.3364645114336152
aF0.33781370824640006
aF0.33531628943477976
aF0.3380853521209563
aF0.33670500134826975
aF0.3369161758906798
aF0.33747109253025986
aF0.33904078543261695
aF0.34074219958181673
aF0.3355786454220646
aF0.3374717808585233
aF0.3349485575743723
aF0.34240460161272446
aF0.3359419835156801
aF0.3360351897928484
aF0.33922640417304223
aF0.33803302655172773
aF0.33633967271008597
aF0.33830274381117503
aF0.3374707620717793
aF0.3379832064882135
aF0.33572569244780565
aF0.3357246456542928
aF0.3351825441384731
aF0.33910950055322514
aF0.3366763616016266
aF0.33653045863991204
aF0.3393869780060381
aF0.3345543400574573
aF0.33646958382302383
aF0.3362346503651864
aF0.3358754297813921
aF0.33627462085936977
aF0.3387298216795081
aF0.33796301096241443
aF0.33637407979751355
aF0.33626027221830873
aF0.33731510753593424
aF0.3355413236664874
aF0.33665126514347576
asba(iparams
Statistics
p74
(dp75
g8
(lp76
I17
aI13
aI17
aI24
aI24
aI36
aI46
aI64
aI74
aI77
aI74
aI86
aI97
aI113
aI105
aI131
aI142
aI127
aI124
aI115
aI150
aI136
aI117
aI133
aI128
aI129
aI130
aI131
aI136
aI133
aI132
aI119
aI114
aI118
aI113
aI130
aI132
aI152
aI123
aI123
aI127
aI133
aI120
aI96
aI111
aI134
aI136
aI128
aI119
aI124
aI136
aI125
aI130
aI132
aI118
aI119
aI136
aI124
aI140
aI119
aI139
aI112
aI137
aI135
aI109
aI121
aI116
aI114
aI143
aI117
aI122
aI129
aI107
aI134
aI127
aI136
aI131
aI115
aI127
aI136
aI127
aI138
aI118
aI143
aI121
aI114
aI113
aI125
aI140
aI130
aI128
aI118
aI112
aI124
aI125
aI128
aI122
aI137
aI134
aI133
aI132
aI132
aI110
aI126
aI110
aI141
aI139
aI133
aI127
aI121
aI124
aI141
aI126
aI121
aI118
aI135
aI120
aI121
aI139
aI130
aI137
aI131
aI123
aI118
aI126
aI135
aI118
aI122
aI128
aI125
aI119
aI141
aI126
aI133
aI138
aI109
aI116
aI122
aI111
aI125
aI127
aI115
aI130
aI124
aI126
aI134
aI126
aI151
aI126
aI112
aI136
aI129
aI130
aI111
aI127
aI122
aI126
aI125
aI120
aI112
aI132
aI134
aI128
aI134
aI132
aI120
aI127
aI117
aI131
aI129
aI123
aI118
aI142
aI115
aI122
aI135
aI126
aI134
aI122
aI120
aI115
aI140
aI137
aI137
aI121
aI123
aI114
aI140
aI121
aI146
aI135
aI133
aI116
aI136
aI126
aI117
aI126
aI112
aI132
aI126
aI147
aI121
aI132
aI124
aI110
aI141
aI122
aI131
aI114
aI120
aI134
aI131
aI130
aI128
aI114
aI132
aI120
aI119
aI141
aI119
aI123
aI133
aI131
aI120
aI140
aI127
aI123
aI123
aI120
aI120
aI118
aI122
aI109
aI120
aI122
aI120
aI144
aI140
aI123
aI129
aI124
aI135
aI140
aI142
aI114
aI129
aI130
aI149
aI118
aI150
asg10
g11
sg12
(lp77
I276
aI374
aI450
aI533
aI591
aI624
aI637
aI681
aI680
aI696
aI688
aI717
aI725
aI740
aI778
aI794
aI800
aI756
aI793
aI790
aI800
aI749
aI772
aI769
aI798
aI782
aI777
aI777
aI757
aI790
aI785
aI768
aI758
aI771
aI768
aI766
aI771
aI783
aI767
aI788
aI793
aI760
aI749
aI752
aI751
aI773
aI756
aI792
aI780
aI790
aI775
aI760
aI791
aI746
aI788
aI781
aI760
aI773
aI777
aI767
aI809
aI795
aI761
aI757
aI746
aI784
aI781
aI788
aI778
aI768
aI759
aI750
aI770
aI762
aI775
aI753
aI770
aI772
aI786
aI762
aI797
aI787
aI785
aI790
aI796
aI772
aI777
aI795
aI775
aI776
aI760
aI755
aI764
aI783
aI779
aI757
aI762
aI794
aI755
aI790
aI787
aI782
aI747
aI770
aI752
aI781
aI783
aI768
aI787
aI784
aI796
aI782
aI768
aI791
aI780
aI769
aI762
aI793
aI775
aI790
aI746
aI795
aI765
aI757
aI760
aI785
aI735
aI761
aI761
aI788
aI767
aI754
aI799
aI784
aI764
aI790
aI780
aI801
aI745
aI749
aI726
aI746
aI768
aI767
aI769
aI787
aI763
aI765
aI749
aI781
aI797
aI800
aI783
aI780
aI759
aI784
aI760
aI762
aI756
aI762
aI786
aI817
aI770
aI786
aI762
aI742
aI787
aI772
aI778
aI782
aI769
aI770
aI792
aI765
aI781
aI781
aI760
aI782
aI797
aI754
aI823
aI784
aI766
aI764
aI758
aI774
aI775
aI783
aI787
aI794
aI807
aI796
aI788
aI804
aI747
aI751
aI782
aI788
aI771
aI760
aI784
aI790
aI776
aI777
aI778
aI801
aI788
aI782
aI721
aI768
aI761
aI798
aI795
aI781
aI774
aI788
aI731
aI768
aI778
aI764
aI762
aI798
aI782
aI738
aI764
aI770
aI753
aI792
aI773
aI781
aI751
aI737
aI749
aI745
aI768
aI788
aI797
aI797
aI792
aI798
aI793
aI796
aI810
aI802
aI765
aI783
aI770
aI773
aI788
aI778
asg14
(lp78
I276
aI374
aI450
aI533
aI591
aI624
aI637
aI681
aI680
aI696
aI688
aI717
aI725
aI740
aI778
aI794
aI800
aI756
aI793
aI790
aI800
aI749
aI772
aI769
aI798
aI782
aI777
aI777
aI757
aI790
aI785
aI768
aI758
aI771
aI768
aI766
aI771
aI783
aI767
aI788
aI793
aI760
aI749
aI752
aI751
aI773
aI756
aI792
aI780
aI790
aI775
aI760
aI791
aI746
aI788
aI781
aI760
aI773
aI777
aI767
aI809
aI795
aI761
aI757
aI746
aI784
aI781
aI788
aI778
aI768
aI759
aI750
aI770
aI762
aI775
aI753
aI770
aI772
aI786
aI762
aI797
aI787
aI785
aI790
aI796
aI772
aI777
aI795
aI775
aI776
aI760
aI755
aI764
aI783
aI779
aI757
aI762
aI794
aI755
aI790
aI787
aI782
aI747
aI770
aI752
aI781
aI783
aI768
aI787
aI784
aI796
aI782
aI768
aI791
aI780
aI769
aI762
aI793
aI775
aI790
aI746
aI795
aI765
aI757
aI760
aI785
aI735
aI761
aI761
aI788
aI767
aI754
aI799
aI784
aI764
aI790
aI780
aI801
aI745
aI749
aI726
aI746
aI768
aI767
aI769
aI787
aI763
aI765
aI749
aI781
aI797
aI800
aI783
aI780
aI759
aI784
aI760
aI762
aI756
aI762
aI786
aI817
aI770
aI786
aI762
aI742
aI787
aI772
aI778
aI782
aI769
aI770
aI792
aI765
aI781
aI781
aI760
aI782
aI797
aI754
aI823
aI784
aI766
aI764
aI758
aI774
aI775
aI783
aI787
aI794
aI807
aI796
aI788
aI804
aI747
aI751
aI782
aI788
aI771
aI760
aI784
aI790
aI776
aI777
aI778
aI801
aI788
aI782
aI721
aI768
aI761
aI798
aI795
aI781
aI774
aI788
aI731
aI768
aI778
aI764
aI762
aI798
aI782
aI738
aI764
aI770
aI753
aI792
aI773
aI781
aI751
aI737
aI749
aI745
aI768
aI788
aI797
aI797
aI792
aI798
aI793
aI796
aI810
aI802
aI765
aI783
aI770
aI773
aI788
aI778
asg5
(lp79
F4.3808159828186035
aF6.395050048828125
aF8.769354104995728
aF11.161586999893188
aF12.880838871002197
aF14.024161100387573
aF14.648181915283203
aF15.691317081451416
aF15.805794954299927
aF15.739344120025635
aF15.7244131565094
aF16.20134210586548
aF16.903619050979614
aF17.698338985443115
aF18.141959190368652
aF18.778154850006104
aF18.348278045654297
aF18.110801935195923
aF18.209322929382324
aF18.488975048065186
aF19.03619408607483
aF18.0361909866333
aF18.22591996192932
aF18.24530005455017
aF18.565296173095703
aF18.44839096069336
aF18.525327920913696
aF18.130086183547974
aF18.160094022750854
aF18.750718116760254
aF18.41034984588623
aF18.08066201210022
aF17.920741081237793
aF18.26956009864807
aF18.373427152633667
aF18.511749029159546
aF18.288177013397217
aF18.627925872802734
aF17.88689398765564
aF18.218080043792725
aF18.346698999404907
aF18.538146018981934
aF17.292200088500977
aF17.32139801979065
aF17.540246963500977
aF17.79397702217102
aF17.855312824249268
aF18.148857831954956
aF18.256892919540405
aF18.37134599685669
aF18.456743001937866
aF18.491621017456055
aF18.4760639667511
aF17.952799081802368
aF18.046645879745483
aF18.5174880027771
aF17.916733980178833
aF17.94050407409668
aF17.91310477256775
aF18.07868504524231
aF18.6718909740448
aF18.480472087860107
aF18.501024961471558
aF18.064670085906982
aF17.547006130218506
aF18.533539056777954
aF18.18298101425171
aF18.788066864013672
aF18.693441152572632
aF18.337788105010986
aF17.9927020072937
aF17.94280505180359
aF18.47609281539917
aF17.847784996032715
aF18.64257788658142
aF18.54898691177368
aF18.519795894622803
aF18.295369863510132
aF18.799685955047607
aF18.53458309173584
aF18.93129801750183
aF18.518373012542725
aF18.448725938796997
aF18.940808057785034
aF18.38829016685486
aF17.635019063949585
aF18.054343938827515
aF18.273026943206787
aF18.13935613632202
aF18.09356999397278
aF17.84835696220398
aF18.086129188537598
aF18.208148956298828
aF18.11023998260498
aF17.90439796447754
aF17.9605450630188
aF18.00717806816101
aF18.43049383163452
aF18.356986045837402
aF18.53547716140747
aF18.58988618850708
aF18.63708996772766
aF17.876147985458374
aF18.033250093460083
aF18.002259969711304
aF18.57722306251526
aF18.867618799209595
aF18.675814151763916
aF18.73951005935669
aF19.112685918807983
aF18.83541202545166
aF18.422895908355713
aF18.19603395462036
aF18.089765787124634
aF18.26476001739502
aF18.252351999282837
aF18.099879026412964
aF18.181485891342163
aF18.302202939987183
aF18.11232614517212
aF18.1581609249115
aF18.140305042266846
aF17.76289415359497
aF17.806793928146362
aF18.207310914993286
aF18.46697497367859
aF17.788355112075806
aF18.213923931121826
aF18.189568996429443
aF18.58755898475647
aF18.306814908981323
aF18.31650185585022
aF18.756633043289185
aF18.675627946853638
aF18.213978052139282
aF18.30681610107422
aF18.916696071624756
aF18.850111961364746
aF17.397695064544678
aF17.169243097305298
aF17.31716299057007
aF17.728482007980347
aF17.859820127487183
aF17.995681047439575
aF18.5088210105896
aF18.99732995033264
aF18.31482720375061
aF18.27271604537964
aF17.878196001052856
aF18.274776220321655
aF18.87289810180664
aF19.546949863433838
aF18.58496403694153
aF18.412065982818604
aF17.686841011047363
aF18.463623046875
aF18.016005039215088
aF18.104958057403564
aF17.95552110671997
aF18.04101300239563
aF18.831892013549805
aF19.2551589012146
aF18.818854093551636
aF18.686754941940308
aF18.455442905426025
aF17.832252979278564
aF18.116325855255127
aF18.175225973129272
aF18.41348910331726
aF18.700347900390625
aF18.19158101081848
aF18.27826499938965
aF18.633132934570312
aF18.098576068878174
aF18.189090967178345
aF18.52178192138672
aF18.796887159347534
aF18.492094039916992
aF19.02645707130432
aF18.825193881988525
aF19.27819585800171
aF18.883249044418335
aF18.467325925827026
aF18.583564043045044
aF17.89466905593872
aF18.215304136276245
aF18.375125885009766
aF18.837134838104248
aF19.060396909713745
aF19.138277053833008
aF19.1518771648407
aF18.638476133346558
aF18.45596718788147
aF18.446878910064697
aF17.819175958633423
aF17.959733963012695
aF18.250464916229248
aF18.143463850021362
aF17.85358691215515
aF17.784299850463867
aF17.882222890853882
aF17.89701509475708
aF18.599129915237427
aF17.912980794906616
aF18.17747211456299
aF18.593411922454834
aF18.217693090438843
aF17.836025953292847
aF17.095234870910645
aF17.8072030544281
aF17.963716983795166
aF18.252981901168823
aF18.582968950271606
aF18.264569997787476
aF18.164725065231323
aF18.366333961486816
aF17.46260404586792
aF18.066171169281006
aF17.9950270652771
aF17.82948613166809
aF18.064868927001953
aF18.32142400741577
aF18.15736484527588
aF17.71876096725464
aF18.316359996795654
aF18.214055061340332
aF17.895743131637573
aF18.805098056793213
aF18.445334911346436
aF18.416969060897827
aF17.90563702583313
aF17.51361107826233
aF18.161114931106567
aF17.886276960372925
aF18.37116289138794
aF19.00867486000061
aF19.242666959762573
aF18.989423036575317
aF19.278029918670654
aF18.748866081237793
aF18.3057279586792
aF18.857383012771606
aF19.186756134033203
aF18.8866229057312
aF18.583009958267212
aF19.198659896850586
aF18.765815019607544
aF18.948276042938232
aF18.36704421043396
aF18.322442054748535
asg17
g1
sg18
(lp80
I309
aI454
aI596
aI724
aI819
aI888
aI919
aI985
aI988
aI986
aI986
aI1029
aI1061
aI1088
aI1121
aI1176
aI1139
aI1120
aI1133
aI1168
aI1180
aI1114
aI1133
aI1143
aI1158
aI1145
aI1143
aI1125
aI1128
aI1162
aI1147
aI1118
aI1114
aI1138
aI1117
aI1140
aI1153
aI1153
aI1126
aI1146
aI1142
aI1101
aI1085
aI1080
aI1101
aI1129
aI1123
aI1129
aI1140
aI1138
aI1133
aI1133
aI1129
aI1097
aI1106
aI1130
aI1099
aI1113
aI1125
aI1125
aI1157
aI1146
aI1145
aI1107
aI1092
aI1146
aI1130
aI1164
aI1145
aI1127
aI1098
aI1092
aI1117
aI1103
aI1138
aI1128
aI1137
aI1130
aI1156
aI1157
aI1169
aI1149
aI1141
aI1159
aI1130
aI1089
aI1108
aI1125
aI1126
aI1117
aI1099
aI1102
aI1100
aI1105
aI1104
aI1106
aI1114
aI1139
aI1125
aI1128
aI1142
aI1120
aI1102
aI1108
aI1116
aI1160
aI1169
aI1140
aI1145
aI1166
aI1158
aI1143
aI1130
aI1133
aI1134
aI1125
aI1108
aI1114
aI1139
aI1142
aI1123
aI1130
aI1111
aI1106
aI1118
aI1132
aI1090
aI1109
aI1122
aI1120
aI1121
aI1129
aI1156
aI1162
aI1132
aI1142
aI1146
aI1152
aI1082
aI1067
aI1055
aI1097
aI1098
aI1110
aI1136
aI1135
aI1128
aI1131
aI1109
aI1143
aI1183
aI1185
aI1131
aI1122
aI1086
aI1110
aI1104
aI1107
aI1109
aI1129
aI1171
aI1178
aI1148
aI1154
aI1127
aI1102
aI1113
aI1119
aI1135
aI1154
aI1108
aI1130
aI1148
aI1127
aI1130
aI1139
aI1154
aI1144
aI1171
aI1143
aI1187
aI1153
aI1134
aI1110
aI1101
aI1123
aI1127
aI1161
aI1169
aI1185
aI1193
aI1149
aI1144
aI1129
aI1093
aI1112
aI1129
aI1104
aI1100
aI1093
aI1120
aI1139
aI1147
aI1120
aI1133
aI1152
aI1123
aI1104
aI1066
aI1106
aI1127
aI1151
aI1168
aI1130
aI1119
aI1120
aI1077
aI1116
aI1117
aI1113
aI1110
aI1125
aI1113
aI1102
aI1125
aI1114
aI1107
aI1148
aI1121
aI1141
aI1096
aI1079
aI1090
aI1095
aI1123
aI1173
aI1203
aI1190
aI1170
aI1152
aI1144
aI1170
aI1182
aI1158
aI1131
aI1168
aI1150
aI1155
aI1137
aI1140
asg20
(lp81
I310
aI455
aI600
aI727
aI823
aI889
aI921
aI987
aI990
aI989
aI992
aI1033
aI1066
aI1091
aI1129
aI1182
aI1145
aI1133
aI1152
aI1183
aI1191
aI1127
aI1142
aI1153
aI1168
aI1151
aI1155
aI1137
aI1138
aI1169
aI1156
aI1126
aI1128
aI1148
aI1129
aI1153
aI1164
aI1159
aI1140
aI1157
aI1157
aI1109
aI1097
aI1093
aI1109
aI1141
aI1135
aI1136
aI1148
aI1149
aI1146
aI1149
aI1142
aI1109
aI1117
aI1142
aI1113
aI1122
aI1137
aI1136
aI1168
aI1159
aI1158
aI1121
aI1108
aI1155
aI1139
aI1174
aI1155
aI1137
aI1107
aI1109
aI1129
aI1115
aI1148
aI1138
aI1146
aI1140
aI1168
aI1176
aI1188
aI1161
aI1153
aI1173
aI1142
aI1100
aI1115
aI1134
aI1136
aI1129
aI1108
aI1111
aI1107
aI1118
aI1114
aI1121
aI1126
aI1149
aI1133
aI1137
aI1157
aI1134
aI1113
aI1117
aI1126
aI1167
aI1182
aI1156
aI1162
aI1179
aI1167
aI1154
aI1139
aI1142
aI1142
aI1132
aI1117
aI1124
aI1149
aI1154
aI1137
aI1138
aI1118
aI1116
aI1129
aI1146
aI1103
aI1125
aI1130
aI1130
aI1133
aI1140
aI1166
aI1168
aI1141
aI1151
aI1159
aI1163
aI1097
aI1080
aI1069
aI1104
aI1108
aI1118
aI1145
aI1148
aI1141
aI1148
aI1126
aI1154
aI1194
aI1193
aI1143
aI1134
aI1100
aI1121
aI1113
aI1119
aI1117
aI1137
aI1184
aI1185
aI1167
aI1172
aI1138
aI1113
aI1122
aI1127
aI1146
aI1166
aI1119
aI1143
aI1157
aI1136
aI1142
aI1157
aI1178
aI1173
aI1188
aI1154
aI1194
aI1164
aI1142
aI1118
aI1112
aI1132
aI1136
aI1175
aI1184
aI1196
aI1203
aI1162
aI1154
aI1141
aI1105
aI1119
aI1138
aI1114
aI1114
aI1106
aI1130
aI1153
aI1156
aI1131
aI1145
aI1165
aI1131
aI1116
aI1080
aI1114
aI1136
aI1157
aI1177
aI1143
aI1128
aI1131
aI1089
aI1125
aI1128
aI1121
aI1126
aI1137
aI1121
aI1114
aI1139
aI1125
aI1119
aI1155
aI1131
aI1150
aI1105
aI1088
aI1101
aI1113
aI1135
aI1187
aI1213
aI1203
aI1185
aI1162
aI1154
aI1180
aI1191
aI1172
aI1139
aI1177
aI1167
aI1168
aI1151
aI1153
asg22
(lp82
sg24
(lp83
I60
aI83
aI102
aI118
aI119
aI114
aI127
aI125
aI141
aI137
aI132
aI144
aI127
aI132
aI127
aI132
aI132
aI136
aI114
aI156
aI137
aI129
aI155
aI127
aI132
aI141
aI149
aI153
aI137
aI141
aI134
aI153
aI130
aI142
aI156
aI131
aI135
aI139
aI129
aI160
aI151
aI137
aI155
aI142
aI134
aI139
aI143
aI133
aI130
aI141
aI125
aI137
aI140
aI144
aI148
aI149
aI137
aI136
aI143
aI146
aI129
aI144
aI156
aI135
aI138
aI130
aI139
aI143
aI139
aI170
aI143
aI127
aI129
aI136
aI126
aI146
aI132
aI162
aI145
aI139
aI132
aI127
aI144
aI123
aI142
aI149
aI144
aI149
aI126
aI157
aI155
aI131
aI149
aI149
aI129
aI133
aI133
aI127
aI154
aI145
aI143
aI125
aI141
aI134
aI134
aI128
aI133
aI135
aI138
aI154
aI134
aI143
aI125
aI137
aI139
aI155
aI162
aI127
aI125
aI137
aI138
aI137
aI149
aI146
aI153
aI130
aI138
aI139
aI134
aI134
aI138
aI127
aI142
aI139
aI140
aI162
aI158
aI147
aI160
aI141
aI119
aI142
aI136
aI137
aI140
aI127
aI143
aI140
aI132
aI133
aI137
aI148
aI135
aI154
aI149
aI133
aI142
aI144
aI137
aI138
aI130
aI136
aI145
aI133
aI162
aI145
aI140
aI136
aI132
aI136
aI144
aI139
aI138
aI130
aI149
aI121
aI135
aI129
aI139
aI137
aI145
aI141
aI141
aI128
aI149
aI136
aI145
aI143
aI133
aI136
aI143
aI137
aI142
aI135
aI135
aI140
aI143
aI143
aI140
aI141
aI124
aI131
aI151
aI140
aI158
aI139
aI153
aI146
aI134
aI133
aI131
aI126
aI157
aI143
aI141
aI127
aI147
aI141
aI136
aI156
aI153
aI134
aI138
aI146
aI134
aI124
aI131
aI134
aI143
aI143
aI157
aI144
aI156
aI121
aI120
aI137
aI126
aI144
aI150
aI146
aI125
aI133
aI151
aI117
aI140
aI135
aI160
aI134
aI153
aI133
asg26
g27
sg28
(lp84
F0.3856789092367416
aF0.3975821918878098
aF0.40920943333697346
aF0.4146531352663727
aF0.419524052469373
aF0.4183331055874011
aF0.42573951111207853
aF0.41550108374112144
aF0.41523126312168646
aF0.41249805212932933
aF0.41805551487911463
aF0.416429766020879
aF0.42437800137289694
aF0.42235508838892494
aF0.4162670724090089
aF0.4240804657849443
aF0.422007334569757
aF0.42384843975032616
aF0.4228383936907376
aF0.41447154224881344
aF0.3936629432554768
aF0.4103063634312036
aF0.3993288101871032
aF0.4043863248701229
aF0.4012454103957457
aF0.4014178011577791
aF0.4085178309148629
aF0.4062045471880194
aF0.4113200855042993
aF0.40546921823810905
aF0.40611587791710624
aF0.3956641396104234
aF0.39688707438042153
aF0.3931717559525426
aF0.39236782099549444
aF0.3987342627917249
aF0.4045302914157875
aF0.3975118203313888
aF0.40000742620738483
aF0.4055977521528712
aF0.4047517937325411
aF0.4054007224628351
aF0.40300895761830074
aF0.39844048157793277
aF0.40752981386691794
aF0.397098994156683
aF0.39734748978851153
aF0.3969145923853221
aF0.4012471530042592
aF0.39166164271831455
aF0.3989262184348434
aF0.40163792852963354
aF0.4001778811903149
aF0.3999467097134799
aF0.3959212012182549
aF0.39814097587115727
aF0.3989957933435179
aF0.3927880734286418
aF0.39852845292942124
aF0.40034840783315456
aF0.3989697925431837
aF0.39363333606106576
aF0.4003790420178572
aF0.4017260375931568
aF0.40144092684137656
aF0.3972952744802996
aF0.3978268112087352
aF0.3883628281019095
aF0.38733461389062124
aF0.3889178128647271
aF0.4009333338334301
aF0.3998053516505464
aF0.3969364241352616
aF0.4032414527708092
aF0.4049569271980575
aF0.3947399320174524
aF0.3895530869876098
aF0.39659767863096657
aF0.38892170781973723
aF0.39666437976507524
aF0.39659314947866586
aF0.39720407058182483
aF0.3990664165635692
aF0.3958357951323836
aF0.39329817472468387
aF0.3940505456967743
aF0.38896327457799196
aF0.39369740099348755
aF0.40255046587736965
aF0.3979665539507244
aF0.39623249553024487
aF0.3951687448528377
aF0.3957368874818721
aF0.3897106597456679
aF0.3940838453363334
aF0.3970451562862179
aF0.4001852657722021
aF0.4010468228661325
aF0.3958064000815524
aF0.3953125552728683
aF0.33261143298971957
aF0.33199806525165876
aF0.3322732141883915
aF0.3372261339520112
aF0.3343487264038617
aF0.33857937281954636
aF0.3317473094549616
aF0.33077766159128735
aF0.33405708875034856
aF0.3362180610075183
aF0.33214619336046197
aF0.3350831942367327
aF0.33466642240057665
aF0.33536518785916675
aF0.3362450320377603
aF0.3395396508864159
aF0.3364268336363653
aF0.3367643713303539
aF0.3317422062394264
aF0.3386507895442918
aF0.3397407402418258
aF0.3306862514528898
aF0.334953220500322
aF0.33621953719802056
aF0.33260657280189865
aF0.3325885071893965
aF0.33200484964255844
aF0.3357928664063592
aF0.3318258376116655
aF0.33637469836409956
aF0.3361921026672937
aF0.3377138238820498
aF0.3356618449463486
aF0.33483060215023075
aF0.3378872478043595
aF0.3357692320139077
aF0.33449318686023954
aF0.33309340272390264
aF0.33632403090004204
aF0.3356094359840658
aF0.33772414554174435
aF0.3364955685399781
aF0.3373352490382056
aF0.3334968202866248
aF0.3350540761280721
aF0.33014705129734495
aF0.3366162421857185
aF0.3364308311436397
aF0.3332672024502261
aF0.3369815219240081
aF0.33480936140325446
aF0.33757231669236504
aF0.33313530365973804
aF0.33627705981949213
aF0.3352896979787883
aF0.332753489540131
aF0.3351146774057113
aF0.3384083803519396
aF0.33361815491731117
aF0.33518636556932435
aF0.337048044468332
aF0.33675263802354916
aF0.3358242631456953
aF0.3333025433188292
aF0.33530911625082005
aF0.33561455338628854
aF0.3309822097061237
aF0.33592679832797157
aF0.33277081584545765
aF0.3342308091053613
aF0.33426434098085855
aF0.33113526434538143
aF0.3354531513413735
aF0.332658709129578
aF0.33633186808379867
aF0.33381532731117
aF0.3346139738045235
aF0.3353838321070071
aF0.3307241113519834
aF0.33592365837546406
aF0.33550798730692555
aF0.3343783256382682
aF0.330320352022221
aF0.3355121692138563
aF0.3321150276053182
aF0.3324536671117521
aF0.3364009534345769
aF0.3315296624663295
aF0.33205384048698156
aF0.3364364532706341
aF0.3393791619774769
aF0.3349444790278928
aF0.33623486274760167
aF0.33462276541763797
aF0.33840540617377024
aF0.3335150513512358
aF0.3366032232711189
aF0.33953267318307667
aF0.3363834742085707
aF0.33243967160150256
aF0.3344763888688796
aF0.3350438786551318
aF0.33104206220114896
aF0.33350478024035246
aF0.33616577602692177
aF0.3335488940749332
aF0.33757423728172015
aF0.33428405222077234
aF0.3408371986537475
aF0.3357754076190471
aF0.33325523017948855
aF0.34017243293904653
aF0.33094129321808063
aF0.33770457177059243
aF0.33395713098144114
aF0.33896522074284163
aF0.33484865960915067
aF0.3294167718177343
aF0.33574336621476913
aF0.33380246749635945
aF0.33165582215868455
aF0.3298346296156488
aF0.3313504803828216
aF0.3327821762465585
aF0.33123956251999026
aF0.3366021580871978
aF0.3371203512432523
aF0.3278179072371474
aF0.3351538879718353
aF0.33200051186976015
aF0.3348056639411997
aF0.33371417464647507
aF0.3394608446075427
aF0.3386453077417803
aF0.33742325173062176
aF0.33626779415816527
aF0.33287182593017794
aF0.34212262233486446
aF0.3330148417849992
aF0.3352790911654606
aF0.3361374913020984
aF0.33306849391386395
aF0.3377261629189302
aF0.3380025374441768
aF0.3372246956249562
aF0.33252168754746947
aF0.3367115613524915
aF0.3343574668185914
aF0.33933999985559954
aF0.3355696231099477
asba(iparams
Statistics
p85
(dp86
g8
(lp87
I15
aI17
aI23
aI27
aI38
aI40
aI52
aI69
aI85
aI82
aI94
aI108
aI112
aI137
aI118
aI155
aI155
aI155
aI148
aI127
aI142
aI162
aI159
aI145
aI148
aI132
aI154
aI139
aI166
aI141
aI157
aI146
aI141
aI147
aI152
aI140
aI183
aI141
aI128
aI120
aI147
aI144
aI154
aI143
aI148
aI139
aI168
aI140
aI163
aI163
aI137
aI166
aI164
aI143
aI144
aI156
aI162
aI159
aI158
aI147
aI140
aI122
aI139
aI147
aI166
aI155
aI160
aI135
aI164
aI155
aI159
aI149
aI146
aI141
aI159
aI157
aI131
aI140
aI132
aI139
aI127
aI149
aI163
aI148
aI151
aI146
aI137
aI156
aI135
aI158
aI154
aI135
aI143
aI169
aI144
aI160
aI156
aI160
aI152
aI147
aI145
aI153
aI144
aI148
aI149
aI154
aI142
aI152
aI160
aI141
aI145
aI157
aI156
aI137
aI151
aI148
aI147
aI157
aI157
aI140
aI156
aI162
aI147
aI157
aI163
aI149
aI145
aI163
aI145
aI148
aI136
aI133
aI158
aI166
aI136
aI155
aI150
aI143
aI158
aI127
aI152
aI149
aI158
aI162
aI144
aI148
aI137
aI141
aI139
aI161
aI165
aI159
aI162
aI146
aI144
aI136
aI155
aI140
aI167
aI139
aI166
aI134
aI147
aI151
aI133
aI158
aI140
aI141
aI136
aI142
aI158
aI160
aI156
aI165
aI125
aI151
aI149
aI134
aI143
aI151
aI155
aI155
aI148
aI124
aI146
aI154
aI158
aI146
aI169
aI148
aI154
aI153
aI157
aI162
aI161
aI165
aI111
aI141
aI135
aI139
aI140
aI164
aI143
aI158
aI138
aI155
aI152
aI149
aI146
aI149
aI166
aI141
aI140
aI141
aI128
aI159
aI157
aI147
aI164
aI149
aI156
aI142
aI146
aI142
aI152
aI158
aI148
aI145
aI133
aI181
aI131
aI152
aI144
aI146
aI141
aI110
aI159
aI160
aI157
aI139
aI133
aI143
aI143
aI151
aI141
aI143
aI146
aI161
aI157
aI158
asg10
g11
sg12
(lp88
I274
aI399
aI502
aI576
aI632
aI687
aI752
aI779
aI794
aI796
aI793
aI804
aI832
aI836
aI855
aI861
aI859
aI895
aI874
aI865
aI870
aI884
aI896
aI843
aI845
aI866
aI861
aI864
aI875
aI888
aI874
aI861
aI868
aI859
aI885
aI900
aI868
aI851
aI861
aI845
aI877
aI856
aI864
aI869
aI881
aI873
aI861
aI871
aI890
aI864
aI890
aI870
aI862
aI890
aI880
aI938
aI895
aI885
aI908
aI864
aI856
aI844
aI848
aI849
aI869
aI851
aI857
aI851
aI854
aI867
aI868
aI866
aI860
aI837
aI875
aI866
aI861
aI850
aI850
aI845
aI881
aI897
aI897
aI862
aI882
aI881
aI873
aI869
aI865
aI876
aI853
aI857
aI870
aI863
aI911
aI893
aI866
aI908
aI883
aI866
aI891
aI865
aI885
aI902
aI849
aI867
aI865
aI857
aI870
aI872
aI891
aI874
aI891
aI864
aI868
aI843
aI891
aI890
aI871
aI859
aI865
aI859
aI857
aI883
aI878
aI876
aI863
aI869
aI875
aI873
aI862
aI893
aI881
aI856
aI869
aI862
aI861
aI856
aI899
aI879
aI862
aI860
aI878
aI838
aI866
aI879
aI875
aI878
aI894
aI895
aI877
aI896
aI884
aI893
aI865
aI888
aI871
aI843
aI855
aI858
aI882
aI888
aI866
aI884
aI883
aI865
aI882
aI869
aI884
aI861
aI883
aI887
aI863
aI883
aI874
aI889
aI876
aI875
aI866
aI861
aI880
aI899
aI848
aI872
aI856
aI875
aI892
aI899
aI885
aI882
aI851
aI867
aI868
aI868
aI856
aI850
aI830
aI852
aI859
aI843
aI857
aI865
aI902
aI871
aI890
aI852
aI889
aI848
aI881
aI883
aI860
aI862
aI883
aI880
aI858
aI884
aI844
aI873
aI874
aI872
aI847
aI847
aI879
aI851
aI861
aI849
aI827
aI829
aI843
aI888
aI850
aI863
aI857
aI874
aI884
aI848
aI886
aI881
aI866
aI847
aI842
aI854
aI865
aI863
aI866
aI872
aI891
aI886
aI876
aI861
asg14
(lp89
I274
aI399
aI502
aI576
aI632
aI687
aI752
aI779
aI794
aI796
aI793
aI804
aI832
aI836
aI855
aI861
aI859
aI895
aI874
aI865
aI870
aI884
aI896
aI843
aI845
aI866
aI861
aI864
aI875
aI888
aI874
aI861
aI868
aI859
aI885
aI900
aI868
aI851
aI861
aI845
aI877
aI856
aI864
aI869
aI881
aI873
aI861
aI871
aI890
aI864
aI890
aI870
aI862
aI890
aI880
aI938
aI895
aI885
aI908
aI864
aI856
aI844
aI848
aI849
aI869
aI851
aI857
aI851
aI854
aI867
aI868
aI866
aI860
aI837
aI875
aI866
aI861
aI850
aI850
aI845
aI881
aI897
aI897
aI862
aI882
aI881
aI873
aI869
aI865
aI876
aI853
aI857
aI870
aI863
aI911
aI893
aI866
aI908
aI883
aI866
aI891
aI865
aI885
aI902
aI849
aI867
aI865
aI857
aI870
aI872
aI891
aI874
aI891
aI864
aI868
aI843
aI891
aI890
aI871
aI859
aI865
aI859
aI857
aI883
aI878
aI876
aI863
aI869
aI875
aI873
aI862
aI893
aI881
aI856
aI869
aI862
aI861
aI856
aI899
aI879
aI862
aI860
aI878
aI838
aI866
aI879
aI875
aI878
aI894
aI895
aI877
aI896
aI884
aI893
aI865
aI888
aI871
aI843
aI855
aI858
aI882
aI888
aI866
aI884
aI883
aI865
aI882
aI869
aI884
aI861
aI883
aI887
aI863
aI883
aI874
aI889
aI876
aI875
aI866
aI861
aI880
aI899
aI848
aI872
aI856
aI875
aI892
aI899
aI885
aI882
aI851
aI867
aI868
aI868
aI856
aI850
aI830
aI852
aI859
aI843
aI857
aI865
aI902
aI871
aI890
aI852
aI889
aI848
aI881
aI883
aI860
aI862
aI883
aI880
aI858
aI884
aI844
aI873
aI874
aI872
aI847
aI847
aI879
aI851
aI861
aI849
aI827
aI829
aI843
aI888
aI850
aI863
aI857
aI874
aI884
aI848
aI886
aI881
aI866
aI847
aI842
aI854
aI865
aI863
aI866
aI872
aI891
aI886
aI876
aI861
asg5
(lp90
F4.564148187637329
aF6.880826950073242
aF9.316365003585815
aF12.16689920425415
aF14.271291017532349
aF16.087571144104004
aF17.23968482017517
aF18.068675994873047
aF18.61577606201172
aF19.04497480392456
aF19.530136108398438
aF19.747954845428467
aF19.980835914611816
aF19.988354921340942
aF20.21385097503662
aF20.86123013496399
aF21.084381103515625
aF21.580326080322266
aF21.459897994995117
aF20.99037003517151
aF21.514545917510986
aF21.576541900634766
aF21.764835119247437
aF21.071611166000366
aF21.375982999801636
aF21.461874961853027
aF21.50416398048401
aF21.416945934295654
aF21.993149995803833
aF22.207871913909912
aF21.61302900314331
aF20.90691590309143
aF20.59092617034912
aF21.584035873413086
aF21.826854944229126
aF22.525001049041748
aF21.955639123916626
aF21.131107807159424
aF21.146727085113525
aF20.905410051345825
aF21.768868923187256
aF21.601078987121582
aF22.097649097442627
aF21.679708003997803
aF21.702248096466064
aF21.337713956832886
aF21.186868906021118
aF21.060837030410767
aF21.963337182998657
aF21.892879009246826
aF21.442814826965332
aF21.73398494720459
aF21.76707696914673
aF21.764051914215088
aF22.137853860855103
aF22.971715927124023
aF22.01023507118225
aF21.997288942337036
aF22.149147987365723
aF21.55584692955017
aF20.587078094482422
aF20.4317409992218
aF21.188438892364502
aF21.439682960510254
aF21.61402916908264
aF20.94200897216797
aF20.899705171585083
aF20.69078016281128
aF21.628730058670044
aF21.71229600906372
aF21.538337230682373
aF21.394811153411865
aF21.411386966705322
aF21.258851051330566
aF20.774899005889893
aF20.773827075958252
aF20.90696692466736
aF21.431576013565063
aF21.208493947982788
aF21.616000175476074
aF21.4204421043396
aF22.039252996444702
aF22.24271011352539
aF21.615106105804443
aF22.117295026779175
aF21.63753890991211
aF21.555904150009155
aF20.920175075531006
aF21.130737781524658
aF21.44095492362976
aF21.19659996032715
aF20.911695957183838
aF21.305304050445557
aF21.52457308769226
aF21.584807872772217
aF21.503313064575195
aF21.51860213279724
aF21.902363061904907
aF21.69187307357788
aF21.14234185218811
aF21.24749517440796
aF21.739961862564087
aF21.710408210754395
aF22.006841897964478
aF21.799860954284668
aF21.595468044281006
aF21.28437113761902
aF21.718038082122803
aF21.283427000045776
aF21.49154496192932
aF21.936564922332764
aF21.695043802261353
aF22.158786058425903
aF21.07387614250183
aF21.8265700340271
aF21.679147005081177
aF21.84457802772522
aF22.090819120407104
aF21.883576154708862
aF21.237154006958008
aF21.532535076141357
aF20.96773910522461
aF21.3659930229187
aF21.297075033187866
aF21.947954177856445
aF21.573814868927002
aF21.790887117385864
aF21.435277938842773
aF21.71744990348816
aF21.92148995399475
aF21.33655285835266
aF21.520112991333008
aF21.94155502319336
aF21.533216953277588
aF21.036139965057373
aF21.48147702217102
aF21.34329581260681
aF21.206151008605957
aF21.917482137680054
aF20.945958137512207
aF21.504008054733276
aF21.04263401031494
aF21.194437980651855
aF21.03464984893799
aF21.371737957000732
aF21.845276832580566
aF21.565675973892212
aF21.893073797225952
aF22.000916004180908
aF22.281041145324707
aF21.837574005126953
aF22.13493299484253
aF22.53881597518921
aF21.738876819610596
aF21.499927043914795
aF21.649341106414795
aF21.572097063064575
aF21.26082491874695
aF21.156462907791138
aF21.797923803329468
aF21.949607849121094
aF21.047367811203003
aF21.115817070007324
aF21.069318056106567
aF21.078235864639282
aF21.112287998199463
aF21.501970052719116
aF21.27483105659485
aF21.589212894439697
aF21.612194061279297
aF22.28877091407776
aF22.407721996307373
aF22.1245219707489
aF21.65402889251709
aF21.517827033996582
aF21.60235905647278
aF21.710428953170776
aF21.62571620941162
aF21.446372985839844
aF21.776360988616943
aF22.14374017715454
aF21.952292919158936
aF21.586167097091675
aF21.812741994857788
aF21.79712200164795
aF22.069434881210327
aF22.112344980239868
aF21.994462966918945
aF21.559208154678345
aF21.36656904220581
aF21.47900700569153
aF21.672560214996338
aF21.624058961868286
aF21.44335699081421
aF20.80681085586548
aF20.347883939743042
aF20.30846381187439
aF20.784549951553345
aF21.14070987701416
aF21.198307991027832
aF21.240138053894043
aF21.533390045166016
aF21.508234977722168
aF21.47811198234558
aF21.53395390510559
aF21.836268186569214
aF21.72034001350403
aF21.556297063827515
aF21.97031307220459
aF21.993377923965454
aF21.366502046585083
aF21.026262998580933
aF21.558400869369507
aF21.458790063858032
aF21.451606035232544
aF21.727532148361206
aF21.43463706970215
aF21.689987897872925
aF21.96467089653015
aF21.485055923461914
aF21.147286891937256
aF21.10595703125
aF21.366669178009033
aF21.017909049987793
aF21.481865882873535
aF20.78688406944275
aF20.544324159622192
aF20.41656804084778
aF21.04022789001465
aF20.98831796646118
aF21.153754949569702
aF20.706719160079956
aF20.537386894226074
aF20.968050956726074
aF21.35317301750183
aF21.040045022964478
aF21.83328104019165
aF21.385951042175293
aF21.08090901374817
aF20.656054973602295
aF20.24338698387146
aF20.550957918167114
aF20.331953048706055
aF20.483361959457397
aF21.16113805770874
aF21.518258810043335
aF22.103530168533325
aF22.25899386405945
aF21.64874792098999
aF21.37631607055664
asg17
g1
sg18
(lp91
I318
aI489
aI645
aI811
aI930
aI1031
aI1120
aI1187
aI1213
aI1220
aI1251
aI1255
aI1284
aI1282
aI1304
aI1340
aI1347
aI1385
aI1362
aI1330
aI1362
aI1369
aI1363
aI1315
aI1333
aI1353
aI1363
aI1357
aI1370
aI1365
aI1347
aI1325
aI1304
aI1358
aI1379
aI1404
aI1388
aI1319
aI1312
aI1325
aI1378
aI1377
aI1395
aI1368
aI1358
aI1341
aI1355
aI1359
aI1390
aI1386
aI1369
aI1397
aI1391
aI1388
aI1401
aI1446
aI1407
aI1404
aI1402
aI1331
aI1295
aI1297
aI1330
aI1334
aI1357
aI1318
aI1321
aI1322
aI1368
aI1377
aI1372
aI1331
aI1334
aI1331
aI1338
aI1327
aI1338
aI1349
aI1335
aI1358
aI1374
aI1412
aI1413
aI1374
aI1393
aI1368
aI1366
aI1329
aI1341
aI1358
aI1346
aI1352
aI1388
aI1391
aI1391
aI1362
aI1388
aI1395
aI1387
aI1361
aI1377
aI1395
aI1370
aI1388
aI1369
aI1353
aI1324
aI1328
aI1342
aI1351
aI1370
aI1382
aI1395
aI1335
aI1367
aI1385
aI1379
aI1391
aI1363
aI1334
aI1365
aI1322
aI1323
aI1356
aI1371
aI1379
aI1349
aI1365
aI1359
aI1374
aI1348
aI1368
aI1395
aI1361
aI1328
aI1356
aI1360
aI1349
aI1373
aI1317
aI1339
aI1321
aI1353
aI1332
aI1339
aI1379
aI1364
aI1385
aI1387
aI1415
aI1387
aI1394
aI1402
aI1389
aI1375
aI1366
aI1362
aI1344
aI1342
aI1375
aI1379
aI1338
aI1361
aI1340
aI1351
aI1343
aI1355
aI1357
aI1361
aI1368
aI1402
aI1407
aI1375
aI1356
aI1360
aI1361
aI1367
aI1353
aI1346
aI1374
aI1393
aI1379
aI1348
aI1349
aI1365
aI1389
aI1394
aI1402
aI1365
aI1345
aI1373
aI1365
aI1360
aI1370
aI1327
aI1307
aI1303
aI1319
aI1338
aI1332
aI1358
aI1365
aI1374
aI1362
aI1348
aI1362
aI1363
aI1355
aI1389
aI1365
aI1368
aI1352
aI1345
aI1339
aI1352
aI1347
aI1344
aI1354
aI1361
aI1349
aI1329
aI1321
aI1331
aI1313
aI1326
aI1307
aI1315
aI1298
aI1340
aI1337
aI1313
aI1318
aI1323
aI1343
aI1362
aI1341
aI1404
aI1366
aI1325
aI1300
aI1277
aI1288
aI1288
aI1306
aI1329
aI1348
aI1383
aI1400
aI1375
aI1347
asg20
(lp92
I319
aI489
aI647
aI812
aI933
aI1036
aI1121
aI1189
aI1215
aI1235
aI1266
aI1275
aI1294
aI1288
aI1312
aI1347
aI1357
aI1396
aI1371
aI1342
aI1375
aI1380
aI1374
aI1332
aI1347
aI1366
aI1371
aI1372
aI1387
aI1382
aI1361
aI1342
aI1323
aI1370
aI1394
aI1416
aI1406
aI1332
aI1322
aI1337
aI1389
aI1396
aI1417
aI1386
aI1376
aI1366
aI1377
aI1375
aI1415
aI1409
aI1388
aI1419
aI1415
aI1414
aI1420
aI1463
aI1423
aI1416
aI1417
aI1348
aI1313
aI1316
aI1347
aI1354
aI1375
aI1342
aI1340
aI1343
aI1386
aI1398
aI1392
aI1354
aI1355
aI1347
aI1355
aI1348
aI1357
aI1363
aI1344
aI1369
aI1391
aI1431
aI1427
aI1385
aI1406
aI1389
aI1386
aI1360
aI1369
aI1386
aI1375
aI1371
aI1407
aI1406
aI1415
aI1374
aI1406
aI1413
aI1409
aI1385
aI1412
aI1415
aI1381
aI1402
aI1384
aI1365
aI1342
aI1342
aI1355
aI1367
aI1389
aI1398
aI1406
aI1349
aI1383
aI1396
aI1391
aI1407
aI1380
aI1354
aI1379
aI1341
aI1343
aI1374
aI1384
aI1389
aI1362
aI1377
aI1372
aI1392
aI1373
aI1389
aI1420
aI1384
aI1348
aI1373
aI1379
aI1365
aI1387
aI1330
aI1357
aI1342
aI1369
aI1343
aI1353
aI1387
aI1379
aI1409
aI1407
aI1438
aI1408
aI1413
aI1416
aI1399
aI1381
aI1381
aI1383
aI1366
aI1364
aI1397
aI1402
aI1361
aI1377
aI1355
aI1370
aI1367
aI1376
aI1374
aI1377
aI1385
aI1416
aI1425
aI1386
aI1368
aI1377
aI1375
aI1382
aI1372
aI1367
aI1397
aI1408
aI1402
aI1368
aI1369
aI1391
aI1412
aI1412
aI1418
aI1383
aI1360
aI1385
aI1381
aI1374
aI1381
aI1343
aI1319
aI1324
aI1338
aI1354
aI1352
aI1385
aI1389
aI1398
aI1386
aI1367
aI1383
aI1382
aI1377
aI1404
aI1377
aI1385
aI1363
aI1361
aI1362
aI1366
aI1361
aI1359
aI1373
aI1375
aI1362
aI1342
aI1331
aI1342
aI1333
aI1346
aI1319
aI1326
aI1310
aI1354
aI1351
aI1328
aI1333
aI1337
aI1354
aI1374
aI1353
aI1417
aI1383
aI1343
aI1310
aI1286
aI1300
aI1303
aI1316
aI1343
aI1368
aI1401
aI1417
aI1392
aI1369
asg22
(lp93
sg24
(lp94
I81
aI99
aI112
aI127
aI136
aI136
aI144
aI131
aI146
aI170
aI165
aI154
aI163
aI147
aI154
aI165
aI165
aI158
aI164
aI199
aI153
aI144
aI175
aI178
aI141
aI152
aI163
aI178
aI165
aI148
aI173
aI158
aI151
aI166
aI153
aI180
aI167
aI177
aI161
aI162
aI139
aI166
aI142
aI156
aI166
aI155
aI141
aI167
aI152
aI162
aI169
aI154
aI164
aI151
aI160
aI142
aI157
aI169
aI183
aI163
aI153
aI177
aI182
aI168
aI143
aI153
aI161
aI168
aI161
aI161
aI162
aI175
aI161
aI171
aI156
aI169
aI178
aI154
aI161
aI157
aI147
aI153
aI173
aI151
aI155
aI155
aI165
aI168
aI188
aI160
aI137
aI154
aI165
aI156
aI166
aI154
aI151
aI158
aI150
aI169
aI145
aI165
aI166
aI176
aI167
aI166
aI165
aI166
aI127
aI155
aI169
aI144
aI150
aI164
aI156
aI164
aI172
aI173
aI160
aI170
aI173
aI164
aI153
aI134
aI146
aI158
aI157
aI159
aI161
aI159
aI169
aI175
aI179
aI153
aI163
aI157
aI155
aI173
aI138
aI182
aI172
aI147
aI154
aI149
aI152
aI159
aI154
aI162
aI170
aI151
aI161
aI166
aI170
aI164
aI168
aI171
aI160
aI169
aI159
aI155
aI148
aI156
aI175
aI145
aI192
aI152
aI151
aI181
aI156
aI165
aI162
aI167
aI164
aI147
aI157
aI164
aI177
aI158
aI154
aI157
aI159
aI169
aI149
aI182
aI143
aI151
aI170
aI171
aI170
aI152
aI164
aI171
aI147
aI164
aI162
aI151
aI169
aI168
aI160
aI150
aI171
aI147
aI158
aI169
aI181
aI154
aI155
aI162
aI162
aI169
aI162
aI156
aI171
aI161
aI160
aI175
aI161
aI164
aI164
aI169
aI158
aI159
aI167
aI182
aI157
aI155
aI163
aI156
aI171
aI143
aI181
aI147
aI147
aI163
aI146
aI176
aI155
aI171
aI166
aI188
aI172
aI165
aI152
aI159
aI163
aI157
aI170
aI149
aI173
aI155
asg26
g27
sg28
(lp95
F0.3854768612091462
aF0.4014884515476171
aF0.39913770580849145
aF0.40802553404047437
aF0.4141319695079454
aF0.41162842107849307
aF0.4075043457889919
aF0.3974744474174361
aF0.4017580343651033
aF0.40984119583527123
aF0.41038992877436226
aF0.41474519176398733
aF0.39753273722483734
aF0.4030374431615713
aF0.4067988420689321
aF0.40462099904865545
aF0.41664003668294924
aF0.409959467644194
aF0.4115947567098798
aF0.4056273392822345
aF0.3992328144287706
aF0.3862207635015547
aF0.39434226208242096
aF0.40089105211881465
aF0.3955801168163074
aF0.3893095388988455
aF0.3973115400316144
aF0.3978451270629658
aF0.38231571140098125
aF0.38665628405958236
aF0.3917974935794754
aF0.3936556859217312
aF0.3933976016991655
aF0.3930413528548389
aF0.38920714986998095
aF0.38562574729300086
aF0.3881202429283388
aF0.3935651243244992
aF0.3883854665556846
aF0.38933143357616007
aF0.38734108427768493
aF0.3912845875757891
aF0.39343103977077254
aF0.38804220767825404
aF0.384154308258022
aF0.3938480012568948
aF0.3880902586979742
aF0.38849788175954647
aF0.38141641729499104
aF0.38228156653243356
aF0.38626119882828863
aF0.3882750923610448
aF0.3875229904619248
aF0.38856473028737387
aF0.38422686132353784
aF0.3837731129699214
aF0.3933874603292296
aF0.3889586789200215
aF0.3862972931213866
aF0.38848181990132696
aF0.3966250687767873
aF0.3932791147543891
aF0.38670947433840724
aF0.385656936078507
aF0.3884209406756542
aF0.3954752905301377
aF0.3928047990144965
aF0.39343450299950067
aF0.39586612953771827
aF0.3934316470409158
aF0.39154068713716395
aF0.3971010764706322
aF0.38788489628927136
aF0.39228553611467953
aF0.3911370350075837
aF0.38948429922351685
aF0.3933638518681086
aF0.3897194021421865
aF0.3905836790614743
aF0.39078798146021687
aF0.3871329012589203
aF0.38271126593229726
aF0.3823923914218964
aF0.3836287453904168
aF0.3818152401458171
aF0.3830730419599941
aF0.3831618528342889
aF0.38068337762608395
aF0.3790018293185623
aF0.38212024303931064
aF0.3862513453556292
aF0.3851880256814117
aF0.38377603231467106
aF0.3819913109445858
aF0.39136631307756714
aF0.3966103829435732
aF0.3916271537483546
aF0.3894090180271778
aF0.3820339836076899
aF0.3883831861861778
aF0.3307225623782138
aF0.33145583604736806
aF0.33369911164431687
aF0.3313013659219199
aF0.32696161101630467
aF0.3312369096371426
aF0.3305589720511142
aF0.33369441682875
aF0.33327479559335904
aF0.3312141055322071
aF0.33564656318042996
aF0.3316256501876072
aF0.3308171084099492
aF0.33228897685212955
aF0.3304857245436771
aF0.33057036364825526
aF0.3226098608137242
aF0.33206929666560425
aF0.3333380596848323
aF0.33180739386717467
aF0.33133807507332175
aF0.33412563402427276
aF0.3330246415251258
aF0.3338531379026493
aF0.3318156063949154
aF0.33474915743565464
aF0.3306513956518322
aF0.33016458534645987
aF0.3362590292069523
aF0.32972501043517594
aF0.33305028860439617
aF0.3293121973749215
aF0.3344554052995928
aF0.32613132775557535
aF0.32986306975629626
aF0.33061453199511437
aF0.3304086675838539
aF0.3361525916410027
aF0.33648739439341385
aF0.33022847804264666
aF0.3339718412341022
aF0.3326977892115427
aF0.33476478534495036
aF0.33298632449671245
aF0.3352140066147239
aF0.32767437324224996
aF0.3343481389599627
aF0.3317849478148501
aF0.3291306721048067
aF0.32585992221165344
aF0.3275655283841837
aF0.3328874928212534
aF0.33577470705695833
aF0.3299829466525887
aF0.33046270357423246
aF0.32233031633553355
aF0.3298495772455874
aF0.3290778543526298
aF0.33058781855391806
aF0.33190983817390607
aF0.32807077129763734
aF0.3263013620134226
aF0.33543740464971583
aF0.3335608030748626
aF0.3346834696792455
aF0.3278394995192885
aF0.3300986738958464
aF0.3329205670933575
aF0.32951417390830096
aF0.3329183279848675
aF0.331970087550336
aF0.33240392796791524
aF0.3252180221694086
aF0.3301269527773517
aF0.33384472157421924
aF0.33019399623743223
aF0.33199397575974005
aF0.33289449903151325
aF0.32938038845772577
aF0.33099795869791165
aF0.33410914689817395
aF0.33709809046177347
aF0.3285322964685607
aF0.3273740688024026
aF0.33591572458104146
aF0.337849224530629
aF0.32783545863265245
aF0.32931909348801847
aF0.33423259660776977
aF0.3317833963553587
aF0.3373362849252357
aF0.3351002087261424
aF0.3354922321456622
aF0.3308558580602409
aF0.3344492754094381
aF0.3360858190576727
aF0.3310728040349657
aF0.3322077026794205
aF0.3302748258823502
aF0.3305099465411672
aF0.3360763673940342
aF0.33144620919967965
aF0.3286706881906305
aF0.3361461879963468
aF0.3292275528545572
aF0.33352352032861593
aF0.33570699401435217
aF0.3265726677193635
aF0.3271111913773742
aF0.33285919611407633
aF0.33423713204926525
aF0.33409854910420317
aF0.32860884486462
aF0.3281557544407193
aF0.333021217999472
aF0.3364899649732
aF0.33406776651511016
aF0.3293856127002083
aF0.33684550877231045
aF0.33322706562236676
aF0.3323068738591614
aF0.3308312444459833
aF0.3282883894657217
aF0.3335091256154395
aF0.3303517627549012
aF0.33325122270456936
aF0.32966271120484747
aF0.33214389167290753
aF0.3329918721114213
aF0.3327807808796849
aF0.32840404104590776
aF0.33062244817819253
aF0.33584949343828574
aF0.3350226130860741
aF0.328885886097035
aF0.3281534333879273
aF0.33592995179245133
aF0.331001463982068
aF0.3338798798111572
aF0.3322849246147138
aF0.33080185306299414
aF0.3357549929644158
aF0.3331447881161996
aF0.33220580766656593
aF0.33672457090538677
aF0.33277268385444203
aF0.33063627554005554
aF0.3312456974621201
aF0.3299236655298641
aF0.32926472307771004
asba.