(iparams
Statistics
p0
(dp1
S'numMissedCars'
p2
(lp3
F0.0
aF0.0
aF1.04
aF7.0
aF8.68
aF9.92
aF11.34
aF12.92
asS'carsRequestingLC'
p4
(lp5
F2.88
aF7.06
aF79.6
aF151.22
aF169.9
aF185.86
aF200.94
aF219.28
asS'carsDoLC'
p6
(lp7
F2.88
aF7.06
aF31.48
aF34.08
aF33.44
aF33.04
aF32.06
aF31.98
asS'turnTime'
p8
(lp9
F0.014395828247070313
aF0.03641369342803955
aF0.18347631454467772
aF0.6153919124603271
aF1.311426043510437
aF2.363133683204651
aF3.6394376802444457
aF5.228483543395996
asS'params'
p10
I0
sS'carsInCS'
p11
(lp12
F2.88
aF7.06
aF31.48
aF34.4
aF33.88
aF33.84
aF32.76
aF32.84
asS'numMadeCars'
p13
(lp14
F17.16
aF35.18
aF71.16
aF75.18
aF76.68
aF77.18
aF78.08
aF79.52
asS'statsPerSim'
p15
(lp16
sS'carsMakingLC'
p17
(lp18
F2.88
aF7.06
aF31.48
aF34.08
aF33.44
aF33.04
aF32.06
aF31.98
asS'costPerLaneChange'
p19
(lp20
F0.9965694974541442
aF1.1589717383181903
aF4.9276487439756975
aF5.602819668586566
aF5.907153102264244
aF6.01122699162292
aF6.283753543103217
aF6.460011833753457
asb.