(lp0
(iparams
RoadParameters
p1
(dp2
S'cellLength'
p3
I12
sS'flow'
p4
F5.0
sS'turnTime'
p5
F17.78061224489796
sba(iparams
Statistics
p6
(dp7
S'numMissedCars'
p8
(lp9
I17
aI13
aI21
aI24
aI17
aI22
aI19
aI13
aI16
aI12
aI12
aI10
aI17
aI18
aI14
aI16
aI15
aI20
aI15
aI20
aI16
aI18
aI16
aI17
aI14
aI14
aI12
aI8
aI16
aI17
aI15
aI24
aI22
aI23
aI20
aI16
aI16
aI13
aI18
aI15
aI14
aI17
aI18
aI20
aI23
aI14
aI14
aI12
aI16
aI18
aI17
aI12
aI15
aI9
aI16
aI14
aI18
aI24
aI14
aI19
aI17
aI13
aI17
aI16
aI15
aI19
aI14
aI18
aI14
aI18
aI10
aI14
aI27
aI20
aI17
aI11
aI13
aI14
aI20
aI15
aI14
aI20
aI18
aI10
aI15
aI12
aI25
aI19
aI14
aI16
aI16
aI18
aI9
aI10
aI12
aI21
aI21
aI16
aI12
aI16
aI19
aI12
aI21
aI12
aI15
aI21
aI17
aI23
aI15
aI19
aI13
aI11
aI11
aI17
aI16
aI26
aI13
aI19
aI18
aI12
aI13
aI15
aI15
aI13
aI15
aI16
aI17
aI20
aI19
aI9
aI20
aI18
aI15
aI22
aI11
aI17
aI24
aI11
aI14
aI15
aI6
aI15
aI16
aI11
aI18
aI19
aI22
aI17
aI13
aI30
asS'g'
p10
(lp11
sS'carsMakingLC'
p12
(lp13
I147
aI144
aI154
aI149
aI145
aI160
aI159
aI150
aI149
aI138
aI136
aI152
aI142
aI141
aI131
aI143
aI129
aI148
aI139
aI140
aI143
aI144
aI148
aI154
aI152
aI144
aI135
aI133
aI152
aI151
aI153
aI158
aI166
aI163
aI153
aI157
aI154
aI156
aI142
aI144
aI142
aI147
aI146
aI152
aI158
aI146
aI138
aI126
aI138
aI138
aI143
aI142
aI143
aI148
aI142
aI152
aI153
aI158
aI156
aI153
aI162
aI141
aI154
aI153
aI154
aI150
aI149
aI146
aI147
aI145
aI141
aI146
aI161
aI144
aI146
aI146
aI138
aI148
aI154
aI137
aI148
aI159
aI154
aI143
aI147
aI166
aI152
aI162
aI149
aI138
aI143
aI136
aI129
aI134
aI144
aI160
aI161
aI142
aI145
aI139
aI143
aI155
aI151
aI135
aI135
aI149
aI154
aI148
aI148
aI153
aI139
aI132
aI134
aI152
aI151
aI147
aI147
aI143
aI137
aI137
aI127
aI136
aI136
aI144
aI140
aI144
aI162
aI156
aI137
aI132
aI146
aI144
aI154
aI146
aI138
aI161
aI154
aI132
aI138
aI140
aI144
aI146
aI157
aI144
aI150
aI151
aI144
aI145
aI163
aI165
asS'carsDoLC'
p14
(lp15
I147
aI144
aI154
aI149
aI145
aI160
aI159
aI150
aI149
aI138
aI136
aI152
aI142
aI141
aI131
aI143
aI129
aI148
aI139
aI140
aI143
aI144
aI148
aI154
aI152
aI144
aI135
aI133
aI152
aI151
aI153
aI158
aI166
aI163
aI153
aI157
aI154
aI156
aI142
aI144
aI142
aI147
aI146
aI152
aI158
aI146
aI138
aI126
aI138
aI138
aI143
aI142
aI143
aI148
aI142
aI152
aI153
aI158
aI156
aI153
aI162
aI141
aI154
aI153
aI154
aI150
aI149
aI146
aI147
aI145
aI141
aI146
aI161
aI144
aI146
aI146
aI138
aI148
aI154
aI137
aI148
aI159
aI154
aI143
aI147
aI166
aI152
aI162
aI149
aI138
aI143
aI136
aI129
aI134
aI144
aI160
aI161
aI142
aI145
aI139
aI143
aI155
aI151
aI135
aI135
aI149
aI154
aI148
aI148
aI153
aI139
aI132
aI134
aI152
aI151
aI147
aI147
aI143
aI137
aI137
aI127
aI136
aI136
aI144
aI140
aI144
aI162
aI156
aI137
aI132
aI146
aI144
aI154
aI146
aI138
aI161
aI154
aI132
aI138
aI140
aI144
aI146
aI157
aI144
aI150
aI151
aI144
aI145
aI163
aI165
asg5
(lp16
F2.9639639854431152
aF2.7775540351867676
aF2.9037740230560303
aF2.7832839488983154
aF2.838340997695923
aF3.1561479568481445
aF2.886240005493164
aF2.808581829071045
aF2.585968017578125
aF2.5189239978790283
aF2.4097840785980225
aF2.8180580139160156
aF2.603822946548462
aF2.504415988922119
aF2.4973578453063965
aF2.698262929916382
aF2.670552968978882
aF2.8527908325195312
aF2.6082208156585693
aF2.674949884414673
aF2.7448339462280273
aF2.559375047683716
aF2.817795991897583
aF2.844773054122925
aF2.7515649795532227
aF2.6089251041412354
aF2.468155860900879
aF2.5332040786743164
aF2.859567880630493
aF2.8926641941070557
aF2.958393096923828
aF3.0033910274505615
aF3.1777360439300537
aF3.202888011932373
aF2.97563099861145
aF2.842994213104248
aF2.8348801136016846
aF3.035133123397827
aF2.636504888534546
aF2.646176815032959
aF2.9238970279693604
aF2.8532140254974365
aF2.804900884628296
aF2.7269248962402344
aF2.8468379974365234
aF2.6486430168151855
aF2.575807809829712
aF2.3642969131469727
aF2.5198991298675537
aF2.5580921173095703
aF2.592170000076294
aF2.6452291011810303
aF2.6495368480682373
aF2.7913999557495117
aF2.7934489250183105
aF2.9824230670928955
aF3.0602118968963623
aF3.0497570037841797
aF2.861841917037964
aF2.952191114425659
aF2.937098979949951
aF2.592743158340454
aF3.0204319953918457
aF2.8227269649505615
aF2.875977039337158
aF2.897106885910034
aF2.653022050857544
aF2.7177610397338867
aF2.9070169925689697
aF2.6667299270629883
aF2.688472032546997
aF2.9261579513549805
aF3.101469039916992
aF2.7309679985046387
aF2.828878879547119
aF2.76718807220459
aF2.6657378673553467
aF2.8937180042266846
aF2.918700933456421
aF2.6646628379821777
aF2.818359851837158
aF2.9211180210113525
aF2.897099018096924
aF2.777458906173706
aF2.813027858734131
aF3.1733789443969727
aF2.8872978687286377
aF3.0127580165863037
aF2.7871081829071045
aF2.6616270542144775
aF2.729008197784424
aF2.4695961475372314
aF2.3495969772338867
aF2.4871208667755127
aF2.9384729862213135
aF3.0076680183410645
aF3.0745351314544678
aF2.612429141998291
aF2.752462863922119
aF2.70028018951416
aF2.817624092102051
aF2.887861967086792
aF2.8156518936157227
aF2.496594190597534
aF2.6148200035095215
aF2.7262661457061768
aF2.858372926712036
aF2.9599709510803223
aF2.8434112071990967
aF2.8584890365600586
aF2.6453161239624023
aF2.5671980381011963
aF2.685070037841797
aF2.9363667964935303
aF2.9221880435943604
aF2.7146189212799072
aF2.779017925262451
aF2.663527011871338
aF2.54213809967041
aF2.583508014678955
aF2.390289783477783
aF2.501807928085327
aF2.458259105682373
aF2.6523678302764893
aF2.5910959243774414
aF2.8158321380615234
aF3.1303870677948
aF2.939965009689331
aF2.552165985107422
aF2.5248169898986816
aF2.6876399517059326
aF2.754520893096924
aF2.8925540447235107
aF2.840489149093628
aF2.5889570713043213
aF3.181175947189331
aF2.8129351139068604
aF2.461289167404175
aF2.5707309246063232
aF2.523371934890747
aF2.5932669639587402
aF2.8181259632110596
aF3.0663809776306152
aF2.9005801677703857
aF2.990673065185547
aF2.917185068130493
aF2.721668004989624
aF2.7584211826324463
aF3.145843029022217
aF3.1763479709625244
asS'params'
p17
g1
sS'carsInCS'
p18
(lp19
I160
aI152
aI162
aI159
aI153
aI174
aI166
aI155
aI151
aI143
aI140
aI157
aI146
aI147
aI137
aI148
aI147
aI158
aI143
aI149
aI149
aI148
aI154
aI158
aI158
aI150
aI139
aI140
aI158
aI161
aI164
aI170
aI176
aI175
aI167
aI166
aI160
aI163
aI148
aI147
aI154
aI154
aI155
aI159
aI165
aI151
aI144
aI135
aI142
aI148
aI152
aI148
aI149
aI155
aI154
aI165
aI168
aI173
aI163
aI165
aI167
aI148
aI168
aI159
aI162
aI160
aI152
aI155
aI157
aI150
aI151
aI159
aI167
aI153
aI157
aI154
aI147
aI161
aI160
aI147
aI159
aI168
aI162
aI155
aI156
aI174
aI164
aI172
aI156
aI148
aI153
aI140
aI135
aI141
aI158
aI166
aI169
aI146
aI151
aI149
aI154
aI159
aI158
aI143
aI145
aI153
aI160
aI162
aI156
aI158
aI144
aI142
aI145
aI162
aI159
aI152
aI153
aI149
aI147
aI145
aI133
aI143
aI144
aI152
aI147
aI151
aI167
aI166
aI146
aI142
aI152
aI153
aI163
aI158
aI145
aI174
aI161
aI142
aI146
aI145
aI147
aI158
aI164
aI150
aI156
aI158
aI150
aI154
aI167
aI171
asS'carsRequestingLC'
p20
(lp21
I161
aI153
aI163
aI161
aI155
aI175
aI167
aI157
aI153
aI146
aI142
aI158
aI147
aI148
aI138
aI149
aI148
aI158
aI144
aI152
aI152
aI151
aI155
aI158
aI158
aI151
aI140
aI140
aI160
aI163
aI164
aI172
aI179
aI177
aI168
aI166
aI160
aI163
aI151
aI148
aI155
aI154
aI156
aI160
aI167
aI151
aI145
aI135
aI142
aI148
aI153
aI149
aI150
aI156
aI155
aI167
aI170
aI174
aI164
aI166
aI168
aI150
aI169
aI160
aI163
aI161
aI152
aI156
aI158
aI150
aI154
aI160
aI169
aI154
aI160
aI154
aI148
aI163
aI162
aI149
aI160
aI169
aI164
aI156
aI157
aI175
aI167
aI173
aI157
aI151
aI156
aI142
aI137
aI142
aI160
aI168
aI172
aI147
aI151
aI150
aI156
aI161
aI159
aI145
aI147
aI156
aI162
aI163
aI156
aI158
aI146
aI143
aI147
aI162
aI160
aI154
aI155
aI152
aI149
aI146
aI133
aI143
aI144
aI152
aI148
aI151
aI167
aI166
aI147
aI143
aI154
aI154
aI164
aI159
aI146
aI176
aI162
aI142
aI147
aI146
aI149
aI159
aI164
aI152
aI157
aI160
aI151
aI155
aI167
aI172
asS'statsPerSim'
p22
(lp23
sS'numMadeCars'
p24
(lp25
I26
aI28
aI29
aI29
aI29
aI17
aI29
aI27
aI35
aI23
aI30
aI32
aI29
aI27
aI25
aI28
aI20
aI23
aI30
aI31
aI29
aI22
aI30
aI25
aI26
aI25
aI30
aI28
aI23
aI25
aI27
aI19
aI24
aI36
aI19
aI26
aI24
aI33
aI25
aI26
aI32
aI23
aI28
aI31
aI30
aI31
aI27
aI25
aI26
aI29
aI26
aI33
aI25
aI25
aI25
aI28
aI21
aI22
aI35
aI27
aI26
aI28
aI19
aI21
aI28
aI28
aI27
aI27
aI22
aI27
aI24
aI31
aI24
aI26
aI29
aI31
aI28
aI25
aI27
aI29
aI23
aI17
aI29
aI23
aI31
aI36
aI30
aI35
aI27
aI28
aI32
aI28
aI34
aI23
aI22
aI21
aI31
aI29
aI27
aI26
aI22
aI29
aI24
aI26
aI25
aI26
aI28
aI20
aI28
aI31
aI29
aI25
aI25
aI28
aI30
aI25
aI28
aI30
aI32
aI33
aI29
aI28
aI28
aI25
aI20
aI22
aI27
aI30
aI27
aI30
aI26
aI29
aI29
aI30
aI30
aI27
aI25
aI28
aI19
aI29
aI36
aI14
aI21
aI32
aI23
aI23
aI22
aI18
aI24
aI22
asS'totalCars'
p26
(lp27
I696
aI1017
aI1310
aI1575
aI1835
aI2058
aI2243
aI2400
aI2563
aI2692
aI2795
aI2877
aI2941
aI3029
aI3074
aI3087
aI3111
aI3155
aI3149
aI3140
aI3159
aI3149
aI3171
aI3190
aI3210
aI3207
aI3205
aI3206
aI3197
aI3201
aI3225
aI3238
aI3216
aI3189
aI3202
aI3209
aI3189
aI3199
aI3229
aI3226
aI3209
aI3191
aI3202
aI3234
aI3238
aI3245
aI3220
aI3219
aI3246
aI3221
aI3222
aI3216
aI3193
aI3181
aI3174
aI3169
aI3211
aI3217
aI3200
aI3187
aI3171
aI3140
aI3154
aI3158
aI3162
aI3181
aI3173
aI3178
aI3166
aI3167
aI3183
aI3182
aI3206
aI3206
aI3217
aI3237
aI3251
aI3239
aI3208
aI3174
aI3167
aI3143
aI3120
aI3133
aI3118
aI3119
aI3128
aI3156
aI3158
aI3181
aI3172
aI3178
aI3168
aI3166
aI3172
aI3156
aI3197
aI3208
aI3224
aI3240
aI3247
aI3227
aI3220
aI3239
aI3222
aI3222
aI3193
aI3197
aI3190
aI3184
aI3152
aI3155
aI3180
aI3187
aI3205
aI3225
aI3217
aI3210
aI3220
aI3197
aI3194
aI3213
aI3227
aI3215
aI3206
aI3210
aI3186
aI3190
aI3182
aI3177
aI3188
aI3203
aI3224
aI3220
aI3220
aI3234
aI3234
aI3237
aI3230
aI3227
aI3230
aI3248
aI3254
aI3263
aI3260
aI3237
aI3205
aI3206
aI3210
aI3206
aI0
aI0
aI0
aI0
aI0
aI0
aI0
aI0
aI0
aI0
aI0
aI0
aI0
aI0
aI0
aI0
aI0
aI0
aI0
aI0
aI0
aI0
aI0
aI0
aI0
aI0
aI0
aI0
aI0
aI0
aI0
aI0
aI0
aI0
aI0
aI0
aI0
aI0
aI0
aI0
aI0
aI0
aI0
aI0
aI0
aI0
aI0
aI0
aI0
aI0
aI0
aI0
aI0
aI0
aI0
aI0
aI0
aI0
aI0
aI0
aI0
aI0
aI0
aI0
aI0
aI0
aI0
aI0
aI0
aI0
aI0
aI0
aI0
aI0
aI0
aI0
aI0
aI0
aI0
aI0
aI0
aI0
aI0
aI0
aI0
aI0
aI0
aI0
aI0
aI0
aI0
aI0
aI0
aI0
aI0
aI0
aI0
aI0
aI0
aI0
aI0
aI0
aI0
aI0
aI0
aI0
aI0
aI0
aI0
aI0
aI0
aI0
aI0
aI0
aI0
aI0
aI0
aI0
aI0
aI0
aI0
aI0
aI0
aI0
aI0
aI0
aI0
aI0
aI0
aI0
aI0
aI0
aI0
aI0
aI0
aI0
aI0
aI0
aI0
aI0
aI0
aI0
aI0
aI0
aI0
aI0
aI0
aI0
aI0
aI0
aI0
aI0
aI0
aI0
aI0
aI0
aI0
aI0
aI0
aI0
aI0
aI0
aI0
aI0
aI0
aI0
aI0
aI0
aI0
aI0
aI0
aI0
aI0
aI0
aI0
aI0
aI0
aI0
aI0
aI0
aI0
aI0
aI0
aI0
aI0
aI0
aI0
aI0
aI0
aI0
aI0
aI0
aI0
aI0
aI0
aI0
aI0
aI0
aI0
aI0
aI0
aI0
aI0
aI0
aI0
aI0
aI0
aI0
aI0
aI0
aI0
aI0
aI0
aI0
aI0
aI0
aI0
aI0
aI0
aI0
aI0
aI0
aI0
aI0
aI0
aI0
aI0
aI0
aI0
aI0
aI0
aI0
aI0
aI0
aI0
aI0
aI0
aI0
aI0
aI0
aI0
aI0
aI0
aI0
aI0
aI0
aI0
aI0
aI0
aI0
aI0
aI0
aI0
aI0
aI0
aI0
aI0
aI0
aI0
aI0
aI0
aI0
aI0
aI0
aI0
aI0
aI0
aI0
aI0
aI0
aI0
aI0
aI0
aI0
aI0
aI0
aI0
aI0
aI0
aI0
aI0
aI0
aI0
aI0
aI0
aI0
aI0
aI0
aI0
aI0
aI0
aI0
aI0
aI0
aI0
aI0
aI0
aI0
aI0
aI0
aI0
aI0
aI0
aI0
aI0
aI0
aI0
aI0
aI0
aI0
aI0
aI0
aI0
aI0
aI0
aI0
aI0
aI0
aI0
aI0
aI0
aI0
aI0
aI0
aI0
aI0
aI0
aI0
aI0
aI0
aI0
aI0
aI0
aI0
aI0
aI0
aI0
aI0
aI0
aI0
aI0
aI0
aI0
aI0
aI0
aI0
aI0
aI0
aI0
aI0
aI0
aI0
aI0
aI0
aI0
aI0
aI0
aI0
aI0
aI0
aI0
aI0
aI0
aI0
aI0
aI0
aI0
aI0
aI0
aI0
aI0
aI0
aI0
aI0
aI0
aI0
aI0
aI0
aI0
aI0
aI0
aI0
aI0
aI0
aI0
aI0
aI0
aI0
aI0
aI0
aI0
aI0
aI0
aI0
aI0
aI0
aI0
aI0
aI0
aI0
aI0
aI0
aI0
aI0
aI0
aI0
aI0
aI0
aI0
aI0
aI0
aI0
aI0
aI0
aI0
aI0
aI0
aI0
aI0
aI0
aI0
aI0
aI0
aI0
aI0
aI0
aI0
aI0
aI0
aI0
aI0
aI0
aI0
aI0
aI0
aI0
aI0
aI0
aI0
aI0
aI0
aI0
aI0
aI0
aI0
aI0
aI0
aI0
aI0
aI0
aI0
aI0
aI0
aI0
aI0
aI0
aI0
aI0
aI0
aI0
aI0
aI0
aI0
aI0
aI0
aI0
aI0
aI0
aI0
aI0
aI0
aI0
aI0
aI0
aI0
aI0
aI0
aI0
aI0
aI0
aI0
aI0
aI0
aI0
aI0
aI0
aI0
aI0
aI0
aI0
aI0
aI0
aI0
aI0
aI0
aI0
aI0
aI0
aI0
aI0
aI0
aI0
aI0
aI0
aI0
aI0
aI0
aI0
aI0
aI0
aI0
aI0
aI0
aI0
aI0
aI0
aI0
aI0
aI0
aI0
aI0
aI0
aI0
aI0
aI0
aI0
aI0
aI0
aI0
aI0
aI0
aI0
aI0
aI0
aI0
aI0
aI0
aI0
aI0
aI0
aI0
aI0
aI0
aI0
aI0
aI0
aI0
aI0
aI0
aI0
aI0
aI0
aI0
aI0
aI0
aI0
aI0
aI0
aI0
aI0
aI0
aI0
aI0
aI0
aI0
aI0
aI0
aI0
aI0
aI0
aI0
aI0
aI0
aI0
aI0
aI0
aI0
aI0
aI0
aI0
aI0
aI0
aI0
aI0
aI0
aI0
aI0
aI0
aI0
aI0
aI0
aI0
aI0
aI0
aI0
aI0
aI0
aI0
aI0
aI0
aI0
aI0
aI0
aI0
aI0
aI0
aI0
aI0
aI0
aI0
aI0
aI0
aI0
aI0
aI0
aI0
aI0
aI0
aI0
aI0
aI0
aI0
aI0
aI0
aI0
aI0
aI0
aI0
aI0
aI0
aI0
aI0
aI0
aI0
aI0
aI0
aI0
aI0
aI0
aI0
aI0
aI0
aI0
aI0
aI0
aI0
aI0
aI0
aI0
aI0
aI0
aI0
aI0
aI0
aI0
aI0
aI0
aI0
aI0
aI0
aI0
aI0
aI0
aI0
aI0
aI0
aI0
aI0
aI0
aI0
aI0
aI0
aI0
aI0
aI0
aI0
aI0
aI0
aI0
aI0
aI0
aI0
aI0
aI0
aI0
aI0
aI0
aI0
aI0
aI0
aI0
aI0
aI0
aI0
aI0
aI0
aI0
aI0
aI0
aI0
aI0
aI0
aI0
aI0
aI0
aI0
aI0
aI0
aI0
aI0
aI0
aI0
aI0
aI0
aI0
aI0
aI0
aI0
aI0
aI0
aI0
aI0
aI0
aI0
aI0
aI0
aI0
aI0
aI0
aI0
aI0
aI0
aI0
aI0
aI0
aI0
aI0
aI0
aI0
aI0
aI0
aI0
aI0
aI0
aI0
aI0
aI0
aI0
aI0
aI0
aI0
aI0
aI0
aI0
aI0
aI0
aI0
aI0
aI0
aI0
aI0
aI0
aI0
aI0
aI0
aI0
aI0
aI0
aI0
aI0
aI0
aI0
aI0
aI0
aI0
aI0
aI0
aI0
aI0
aI0
aI0
aI0
aI0
aI0
aI0
aI0
aI0
aI0
aI0
aI0
aI0
aI0
aI0
aI0
aI0
aI0
aI0
aI0
aI0
aI0
aI0
aI0
aI0
aI0
aI0
aI0
aI0
aI0
aI0
aI0
aI0
aI0
aI0
aI0
aI0
aI0
aI0
aI0
aI0
aI0
aI0
aI0
aI0
aI0
aI0
aI0
aI0
aI0
aI0
aI0
aI0
aI0
aI0
aI0
aI0
aI0
aI0
aI0
aI0
aI0
aI0
aI0
aI0
aI0
aI0
aI0
aI0
aI0
aI0
aI0
aI0
aI0
aI0
aI0
aI0
aI0
aI0
aI0
aI0
aI0
aI0
aI0
aI0
aI0
aI0
aI0
aI0
aI0
aI0
aI0
aI0
aI0
aI0
aI0
aI0
aI0
aI0
aI0
aI0
aI0
aI0
aI0
aI0
aI0
aI0
aI0
aI0
aI0
aI0
aI0
aI0
aI0
aI0
aI0
aI0
aI0
aI0
aI0
aI0
aI0
aI0
aI0
aI0
aI0
aI0
aI0
aI0
aI0
aI0
aI0
aI0
aI0
aI0
aI0
aI0
aI0
aI0
aI0
aI0
aI0
aI0
aI0
aI0
aI0
aI0
aI0
aI0
aI0
aI0
aI0
aI0
aI0
aI0
aI0
aI0
aI0
aI0
aI0
aI0
aI0
aI0
aI0
aI0
aI0
aI0
aI0
aI0
aI0
aI0
aI0
aI0
aI0
aI0
aI0
aI0
aI0
aI0
aI0
aI0
aI0
aI0
aI0
aI0
aI0
aI0
aI0
aI0
aI0
aI0
aI0
aI0
aI0
aI0
aI0
aI0
aI0
aI0
aI0
aI0
aI0
aI0
aI0
aI0
aI0
aI0
aI0
aI0
aI0
aI0
aI0
aI0
aI0
aI0
aI0
aI0
aI0
aI0
aI0
aI0
aI0
aI0
aI0
aI0
aI0
aI0
aI0
aI0
aI0
aI0
aI0
aI0
aI0
aI0
aI0
aI0
aI0
aI0
aI0
aI0
aI0
aI0
aI0
aI0
aI0
aI0
aI0
aI0
aI0
aI0
aI0
aI0
aI0
aI0
aI0
aI0
aI0
aI0
aI0
aI0
aI0
aI0
aI0
aI0
aI0
aI0
aI0
aI0
aI0
aI0
aI0
aI0
aI0
aI0
aI0
aI0
aI0
aI0
aI0
aI0
aI0
aI0
aI0
aI0
aI0
aI0
aI0
aI0
aI0
aI0
aI0
aI0
aI0
aI0
aI0
aI0
aI0
aI0
aI0
aI0
aI0
aI0
aI0
aI0
aI0
aI0
aI0
aI0
aI0
aI0
aI0
aI0
aI0
aI0
aI0
aI0
aI0
aI0
aI0
aI0
aI0
aI0
aI0
aI0
aI0
aI0
aI0
aI0
aI0
aI0
aI0
aI0
aI0
aI0
aI0
aI0
aI0
aI0
aI0
aI0
aI0
aI0
aI0
aI0
aI0
aI0
aI0
aI0
aI0
aI0
aI0
aI0
aI0
aI0
aI0
aI0
aI0
aI0
aI0
aI0
aI0
aI0
aI0
aI0
aI0
aI0
aI0
aI0
aI0
aI0
aI0
aI0
aI0
aI0
aI0
aI0
aI0
aI0
aI0
aI0
aI0
aI0
aI0
aI0
aI0
aI0
aI0
aI0
aI0
aI0
aI0
aI0
aI0
aI0
aI0
aI0
aI0
aI0
aI0
aI0
aI0
aI0
aI0
aI0
aI0
aI0
aI0
aI0
aI0
aI0
aI0
aI0
aI0
aI0
aI0
aI0
aI0
aI0
aI0
aI0
aI0
aI0
aI0
aI0
aI0
aI0
aI0
aI0
aI0
aI0
aI0
aI0
aI0
aI0
aI0
aI0
aI0
aI0
aI0
aI0
aI0
aI0
aI0
aI0
aI0
aI0
aI0
aI0
aI0
aI0
aI0
aI0
aI0
aI0
aI0
aI0
aI0
aI0
aI0
aI0
aI0
aI0
aI0
aI0
aI0
aI0
aI0
aI0
aI0
aI0
aI0
aI0
aI0
aI0
aI0
aI0
aI0
aI0
aI0
aI0
aI0
aI0
aI0
aI0
aI0
aI0
aI0
aI0
aI0
aI0
aI0
aI0
aI0
aI0
aI0
aI0
aI0
aI0
aI0
aI0
aI0
aI0
aI0
aI0
aI0
aI0
aI0
aI0
aI0
aI0
aI0
aI0
aI0
aI0
aI0
aI0
aI0
aI0
aI0
aI0
aI0
aI0
aI0
aI0
aI0
aI0
aI0
aI0
aI0
aI0
aI0
aI0
aI0
aI0
aI0
aI0
aI0
aI0
aI0
aI0
aI0
aI0
aI0
aI0
aI0
aI0
aI0
aI0
aI0
aI0
aI0
aI0
aI0
aI0
aI0
aI0
aI0
aI0
aI0
aI0
aI0
aI0
aI0
aI0
aI0
aI0
aI0
aI0
aI0
aI0
aI0
aI0
aI0
aI0
aI0
aI0
aI0
aI0
aI0
aI0
aI0
aI0
aI0
aI0
aI0
aI0
aI0
aI0
aI0
aI0
aI0
aI0
aI0
aI0
aI0
aI0
aI0
aI0
aI0
aI0
aI0
aI0
aI0
aI0
aI0
aI0
aI0
aI0
aI0
aI0
aI0
aI0
aI0
aI0
aI0
aI0
aI0
aI0
aI0
aI0
aI0
aI0
aI0
aI0
aI0
aI0
aI0
aI0
aI0
aI0
aI0
aI0
aI0
aI0
aI0
aI0
aI0
aI0
aI0
aI0
aI0
aI0
aI0
aI0
aI0
aI0
aI0
aI0
aI0
aI0
aI0
aI0
aI0
aI0
aI0
aI0
aI0
aI0
aI0
aI0
aI0
aI0
aI0
aI0
aI0
aI0
aI0
aI0
aI0
aI0
aI0
aI0
aI0
aI0
aI0
aI0
aI0
aI0
aI0
aI0
aI0
aI0
aI0
aI0
aI0
aI0
aI0
aI0
aI0
aI0
aI0
aI0
aI0
aI0
aI0
aI0
aI0
aI0
aI0
aI0
aI0
aI0
aI0
aI0
aI0
aI0
aI0
aI0
aI0
aI0
aI0
aI0
aI0
aI0
aI0
aI0
aI0
aI0
aI0
aI0
aI0
aI0
aI0
aI0
aI0
aI0
aI0
aI0
aI0
aI0
aI0
aI0
aI0
aI0
aI0
aI0
aI0
aI0
aI0
aI0
aI0
aI0
aI0
aI0
aI0
aI0
aI0
aI0
aI0
aI0
aI0
aI0
aI0
aI0
aI0
aI0
aI0
aI0
aI0
aI0
aI0
aI0
aI0
aI0
aI0
aI0
aI0
aI0
aI0
aI0
aI0
aI0
aI0
aI0
aI0
aI0
aI0
aI0
aI0
aI0
aI0
aI0
aI0
aI0
aI0
aI0
aI0
aI0
aI0
aI0
aI0
aI0
aI0
aI0
aI0
aI0
aI0
aI0
aI0
aI0
aI0
aI0
aI0
aI0
aI0
aI0
aI0
aI0
aI0
aI0
aI0
aI0
aI0
aI0
aI0
aI0
aI0
aI0
aI0
aI0
aI0
aI0
aI0
aI0
aI0
aI0
aI0
aI0
aI0
aI0
aI0
aI0
aI0
aI0
aI0
aI0
aI0
aI0
aI0
aI0
aI0
aI0
aI0
aI0
aI0
aI0
aI0
aI0
aI0
aI0
aI0
aI0
aI0
aI0
aI0
aI0
aI0
aI0
aI0
aI0
aI0
aI0
aI0
aI0
aI0
aI0
aI0
aI0
aI0
aI0
aI0
aI0
aI0
aI0
aI0
aI0
aI0
aI0
aI0
aI0
aI0
aI0
aI0
aI0
aI0
aI0
aI0
aI0
aI0
aI0
aI0
aI0
aI0
aI0
aI0
aI0
aI0
aI0
aI0
aI0
aI0
aI0
aI0
aI0
aI0
aI0
aI0
aI0
aI0
aI0
aI0
aI0
aI0
aI0
aI0
aI0
aI0
aI0
aI0
aI0
aI0
aI0
aI0
aI0
aI0
aI0
aI0
aI0
aI0
aI0
aI0
aI0
aI0
aI0
aI0
aI0
aI0
aI0
aI0
aI0
aI0
aI0
aI0
aI0
aI0
aI0
aI0
aI0
aI0
aI0
aI0
aI0
aI0
aI0
aI0
aI0
aI0
aI0
aI0
aI0
aI0
aI0
aI0
aI0
aI0
aI0
aI0
aI0
aI0
aI0
aI0
aI0
aI0
aI0
aI0
aI0
aI0
aI0
aI0
aI0
aI0
aI0
aI0
aI0
aI0
aI0
aI0
aI0
aI0
aI0
aI0
aI0
aI0
aI0
aI0
aI0
aI0
aI0
aI0
aI0
aI0
aI0
aI0
aI0
aI0
aI0
aI0
aI0
aI0
aI0
aI0
aI0
aI0
aI0
aI0
aI0
aI0
aI0
aI0
aI0
aI0
aI0
aI0
aI0
aI0
aI0
aI0
aI0
aI0
aI0
aI0
aI0
aI0
aI0
aI0
aI0
aI0
aI0
aI0
aI0
aI0
aI0
aI0
aI0
aI0
aI0
aI0
aI0
aI0
aI0
aI0
aI0
aI0
aI0
aI0
aI0
aI0
aI0
aI0
aI0
aI0
aI0
aI0
aI0
aI0
aI0
aI0
aI0
aI0
aI0
aI0
aI0
aI0
aI0
aI0
aI0
aI0
aI0
aI0
aI0
aI0
aI0
aI0
aI0
aI0
aI0
aI0
aI0
aI0
aI0
aI0
aI0
aI0
aI0
aI0
aI0
aI0
aI0
aI0
aI0
aI0
aI0
aI0
aI0
aI0
aI0
aI0
aI0
aI0
aI0
aI0
aI0
aI0
aI0
aI0
aI0
aI0
aI0
aI0
aI0
aI0
aI0
aI0
aI0
aI0
aI0
aI0
aI0
aI0
aI0
aI0
aI0
aI0
aI0
aI0
aI0
aI0
aI0
aI0
aI0
aI0
aI0
aI0
aI0
aI0
aI0
aI0
aI0
aI0
aI0
aI0
aI0
aI0
aI0
aI0
aI0
aI0
aI0
aI0
aI0
aI0
aI0
aI0
aI0
aI0
aI0
aI0
aI0
aI0
aI0
aI0
aI0
aI0
aI0
aI0
aI0
aI0
aI0
aI0
aI0
aI0
aI0
aI0
aI0
aI0
aI0
aI0
aI0
aI0
aI0
aI0
aI0
aI0
aI0
aI0
aI0
aI0
aI0
aI0
aI0
aI0
aI0
aI0
aI0
aI0
aI0
aI0
aI0
aI0
aI0
aI0
aI0
aI0
aI0
aI0
aI0
aI0
aI0
aI0
aI0
aI0
aI0
aI0
aI0
aI0
aI0
aI0
aI0
aI0
aI0
aI0
aI0
aI0
aI0
aI0
aI0
aI0
aI0
aI0
aI0
aI0
aI0
aI0
aI0
aI0
aI0
aI0
aI0
aI0
aI0
aI0
aI0
aI0
aI0
aI0
aI0
aI0
aI0
aI0
aI0
aI0
aI0
aI0
aI0
aI0
aI0
aI0
aI0
aI0
aI0
aI0
aI0
aI0
aI0
aI0
aI0
aI0
aI0
aI0
aI0
aI0
aI0
aI0
aI0
aI0
aI0
aI0
aI0
aI0
aI0
aI0
aI0
aI0
aI0
aI0
aI0
aI0
aI0
aI0
aI0
aI0
aI0
aI0
aI0
aI0
aI0
aI0
aI0
aI0
aI0
aI0
aI0
aI0
aI0
aI0
aI0
aI0
aI0
aI0
aI0
aI0
aI0
aI0
aI0
aI0
aI0
aI0
aI0
aI0
aI0
aI0
aI0
aI0
aI0
aI0
aI0
aI0
aI0
aI0
aI0
aI0
aI0
aI0
aI0
aI0
aI0
aI0
aI0
aI0
aI0
aI0
aI0
aI0
aI0
aI0
aI0
aI0
aI0
aI0
aI0
aI0
aI0
aI0
aI0
aI0
aI0
aI0
aI0
aI0
aI0
aI0
aI0
aI0
aI0
aI0
aI0
aI0
aI0
aI0
aI0
aI0
aI0
aI0
aI0
aI0
aI0
aI0
aI0
aI0
aI0
aI0
aI0
aI0
aI0
aI0
aI0
aI0
aI0
aI0
aI0
aI0
aI0
aI0
aI0
aI0
aI0
aI0
aI0
aI0
aI0
aI0
aI0
aI0
aI0
aI0
aI0
aI0
aI0
aI0
aI0
aI0
aI0
aI0
aI0
aI0
aI0
aI0
aI0
aI0
aI0
aI0
aI0
aI0
aI0
aI0
aI0
aI0
aI0
aI0
aI0
aI0
aI0
aI0
aI0
aI0
aI0
aI0
aI0
aI0
aI0
aI0
aI0
aI0
aI0
aI0
aI0
aI0
aI0
aI0
aI0
aI0
aI0
aI0
aI0
aI0
aI0
aI0
aI0
aI0
aI0
aI0
aI0
aI0
aI0
aI0
aI0
aI0
aI0
aI0
aI0
aI0
aI0
aI0
aI0
aI0
aI0
aI0
aI0
aI0
aI0
aI0
aI0
aI0
aI0
aI0
aI0
aI0
aI0
aI0
aI0
aI0
aI0
aI0
aI0
aI0
aI0
aI0
aI0
aI0
aI0
aI0
aI0
aI0
aI0
aI0
aI0
aI0
aI0
aI0
aI0
aI0
aI0
aI0
aI0
aI0
aI0
aI0
aI0
aI0
aI0
aI0
aI0
aI0
aI0
aI0
aI0
aI0
aI0
aI0
aI0
aI0
aI0
aI0
aI0
aI0
aI0
aI0
aI0
aI0
aI0
aI0
aI0
aI0
aI0
aI0
aI0
aI0
aI0
aI0
aI0
aI0
aI0
aI0
aI0
aI0
aI0
aI0
aI0
aI0
aI0
aI0
aI0
aI0
aI0
aI0
aI0
aI0
aI0
aI0
aI0
aI0
aI0
aI0
aI0
aI0
aI0
aI0
aI0
aI0
aI0
aI0
aI0
aI0
aI0
aI0
aI0
aI0
aI0
aI0
aI0
aI0
aI0
aI0
aI0
aI0
aI0
aI0
aI0
aI0
aI0
aI0
aI0
aI0
aI0
aI0
aI0
aI0
aI0
aI0
aI0
aI0
aI0
aI0
aI0
aI0
aI0
aI0
aI0
aI0
aI0
aI0
aI0
aI0
aI0
aI0
aI0
aI0
aI0
aI0
aI0
aI0
aI0
aI0
aI0
aI0
aI0
aI0
aI0
aI0
aI0
aI0
aI0
aI0
aI0
aI0
aI0
aI0
aI0
aI0
aI0
aI0
aI0
aI0
aI0
aI0
aI0
aI0
aI0
aI0
aI0
aI0
aI0
aI0
aI0
aI0
aI0
aI0
aI0
aI0
aI0
aI0
aI0
aI0
aI0
aI0
aI0
aI0
aI0
aI0
aI0
aI0
aI0
aI0
aI0
aI0
aI0
aI0
aI0
aI0
aI0
aI0
aI0
aI0
aI0
aI0
aI0
aI0
aI0
aI0
aI0
aI0
aI0
aI0
aI0
aI0
aI0
aI0
aI0
aI0
aI0
aI0
aI0
aI0
aI0
aI0
aI0
aI0
aI0
aI0
aI0
aI0
aI0
aI0
aI0
aI0
aI0
aI0
aI0
aI0
aI0
aI0
aI0
aI0
aI0
aI0
aI0
aI0
aI0
aI0
aI0
aI0
aI0
aI0
aI0
aI0
aI0
aI0
aI0
aI0
aI0
aI0
aI0
aI0
aI0
aI0
aI0
aI0
aI0
aI0
aI0
aI0
aI0
aI0
aI0
aI0
aI0
aI0
aI0
aI0
aI0
aI0
aI0
aI0
aI0
aI0
aI0
aI0
aI0
aI0
aI0
aI0
aI0
aI0
aI0
aI0
aI0
aI0
aI0
aI0
aI0
aI0
aI0
aI0
aI0
aI0
aI0
aI0
aI0
aI0
aI0
aI0
aI0
aI0
aI0
aI0
aI0
aI0
aI0
aI0
aI0
aI0
aI0
aI0
aI0
aI0
aI0
aI0
aI0
aI0
aI0
aI0
aI0
aI0
aI0
aI0
aI0
aI0
aI0
aI0
aI0
aI0
aI0
aI0
aI0
aI0
aI0
aI0
aI0
aI0
aI0
aI0
aI0
aI0
aI0
aI0
aI0
aI0
aI0
aI0
aI0
aI0
aI0
aI0
aI0
aI0
aI0
aI0
aI0
aI0
aI0
aI0
aI0
aI0
aI0
aI0
aI0
aI0
aI0
aI0
aI0
aI0
aI0
aI0
aI0
aI0
aI0
aI0
aI0
aI0
aI0
aI0
aI0
aI0
aI0
aI0
aI0
aI0
aI0
aI0
aI0
aI0
aI0
aI0
aI0
aI0
aI0
aI0
aI0
aI0
aI0
aI0
aI0
aI0
aI0
aI0
aI0
aI0
aI0
aI0
aI0
aI0
aI0
aI0
aI0
aI0
aI0
aI0
aI0
aI0
aI0
aI0
aI0
aI0
aI0
aI0
aI0
aI0
aI0
aI0
aI0
aI0
aI0
aI0
aI0
aI0
aI0
aI0
aI0
aI0
aI0
aI0
aI0
aI0
aI0
aI0
aI0
aI0
aI0
aI0
aI0
aI0
aI0
aI0
aI0
aI0
aI0
aI0
aI0
aI0
aI0
aI0
aI0
aI0
aI0
aI0
aI0
aI0
aI0
aI0
aI0
aI0
aI0
aI0
aI0
aI0
aI0
aI0
aI0
aI0
aI0
aI0
aI0
aI0
aI0
aI0
aI0
aI0
aI0
aI0
aI0
aI0
aI0
aI0
aI0
aI0
aI0
aI0
aI0
aI0
aI0
aI0
aI0
aI0
aI0
aI0
aI0
aI0
aI0
aI0
aI0
aI0
aI0
aI0
aI0
aI0
aI0
aI0
aI0
aI0
aI0
aI0
aI0
aI0
aI0
aI0
aI0
aI0
aI0
aI0
aI0
aI0
aI0
aI0
aI0
aI0
aI0
aI0
aI0
aI0
aI0
aI0
aI0
aI0
aI0
aI0
aI0
aI0
aI0
aI0
aI0
aI0
aI0
aI0
aI0
aI0
aI0
aI0
aI0
aI0
aI0
aI0
aI0
aI0
aI0
aI0
aI0
aI0
aI0
aI0
aI0
aI0
aI0
aI0
aI0
aI0
aI0
aI0
aI0
aI0
aI0
aI0
aI0
aI0
aI0
aI0
aI0
aI0
aI0
aI0
aI0
aI0
aI0
aI0
aI0
aI0
aI0
aI0
aI0
aI0
aI0
aI0
aI0
aI0
aI0
aI0
aI0
aI0
aI0
aI0
aI0
aI0
aI0
aI0
aI0
aI0
aI0
aI0
aI0
aI0
aI0
aI0
aI0
aI0
aI0
aI0
aI0
aI0
aI0
aI0
aI0
aI0
aI0
aI0
aI0
aI0
aI0
aI0
aI0
aI0
aI0
aI0
aI0
aI0
aI0
aI0
aI0
aI0
aI0
aI0
aI0
aI0
aI0
aI0
aI0
aI0
aI0
aI0
aI0
aI0
aI0
aI0
aI0
aI0
aI0
aI0
aI0
aI0
aI0
aI0
aI0
aI0
aI0
aI0
aI0
aI0
aI0
aI0
aI0
aI0
aI0
aI0
aI0
aI0
aI0
aI0
aI0
aI0
aI0
aI0
aI0
aI0
aI0
aI0
aI0
aI0
aI0
aI0
aI0
aI0
aI0
aI0
aI0
aI0
aI0
aI0
aI0
aI0
aI0
aI0
aI0
aI0
aI0
aI0
aI0
aI0
aI0
aI0
aI0
aI0
aI0
aI0
aI0
aI0
aI0
aI0
aI0
aI0
aI0
aI0
aI0
aI0
aI0
aI0
aI0
aI0
aI0
aI0
aI0
aI0
aI0
aI0
aI0
aI0
aI0
aI0
aI0
aI0
aI0
aI0
aI0
aI0
aI0
aI0
aI0
aI0
aI0
aI0
aI0
aI0
aI0
aI0
aI0
aI0
aI0
aI0
aI0
aI0
aI0
aI0
aI0
aI0
aI0
aI0
aI0
aI0
aI0
aI0
aI0
aI0
aI0
aI0
aI0
aI0
aI0
aI0
aI0
aI0
aI0
aI0
aI0
aI0
aI0
aI0
aI0
aI0
aI0
aI0
aI0
aI0
aI0
aI0
aI0
aI0
aI0
aI0
aI0
aI0
aI0
aI0
aI0
aI0
aI0
aI0
aI0
aI0
aI0
aI0
aI0
aI0
aI0
aI0
aI0
aI0
aI0
aI0
aI0
aI0
aI0
aI0
aI0
aI0
aI0
aI0
aI0
aI0
aI0
aI0
aI0
aI0
aI0
aI0
aI0
aI0
aI0
aI0
aI0
aI0
aI0
aI0
aI0
aI0
aI0
aI0
aI0
aI0
aI0
aI0
aI0
aI0
aI0
aI0
aI0
aI0
aI0
aI0
aI0
aI0
aI0
aI0
aI0
aI0
aI0
aI0
aI0
aI0
aI0
aI0
aI0
aI0
aI0
aI0
aI0
aI0
aI0
aI0
aI0
aI0
aI0
aI0
aI0
aI0
aI0
aI0
aI0
aI0
aI0
aI0
aI0
aI0
aI0
aI0
aI0
aI0
aI0
aI0
aI0
aI0
aI0
aI0
aI0
aI0
aI0
aI0
aI0
aI0
aI0
aI0
aI0
aI0
aI0
aI0
aI0
aI0
aI0
aI0
aI0
aI0
aI0
aI0
aI0
aI0
aI0
aI0
aI0
aI0
aI0
aI0
aI0
aI0
aI0
aI0
aI0
aI0
aI0
aI0
aI0
aI0
aI0
aI0
aI0
aI0
aI0
aI0
aI0
aI0
aI0
aI0
aI0
aI0
aI0
aI0
aI0
aI0
aI0
aI0
aI0
aI0
aI0
aI0
aI0
aI0
aI0
aI0
aI0
aI0
aI0
aI0
aI0
aI0
aI0
aI0
aI0
aI0
aI0
aI0
aI0
aI0
aI0
aI0
aI0
aI0
aI0
aI0
aI0
aI0
aI0
aI0
aI0
aI0
aI0
aI0
aI0
aI0
aI0
aI0
aI0
aI0
aI0
aI0
aI0
aI0
aI0
aI0
aI0
aI0
aI0
aI0
aI0
aI0
aI0
aI0
aI0
aI0
aI0
aI0
aI0
aI0
aI0
aI0
aI0
aI0
aI0
aI0
aI0
aI0
aI0
aI0
aI0
aI0
aI0
aI0
aI0
aI0
aI0
aI0
aI0
aI0
aI0
aI0
aI0
aI0
aI0
aI0
aI0
aI0
aI0
aI0
aI0
aI0
aI0
aI0
aI0
aI0
aI0
aI0
aI0
aI0
aI0
aI0
aI0
aI0
aI0
aI0
aI0
aI0
aI0
aI0
aI0
aI0
aI0
aI0
aI0
aI0
aI0
aI0
aI0
aI0
aI0
aI0
aI0
aI0
aI0
aI0
aI0
aI0
aI0
aI0
aI0
aI0
aI0
aI0
aI0
aI0
aI0
aI0
aI0
aI0
aI0
aI0
aI0
aI0
aI0
aI0
aI0
aI0
aI0
aI0
aI0
aI0
aI0
aI0
aI0
aI0
aI0
aI0
aI0
aI0
aI0
aI0
aI0
aI0
aI0
aI0
aI0
aI0
aI0
aI0
aI0
aI0
aI0
aI0
aI0
aI0
aI0
aI0
aI0
aI0
aI0
aI0
aI0
aI0
aI0
aI0
aI0
aI0
aI0
aI0
aI0
aI0
aI0
aI0
aI0
aI0
aI0
aI0
aI0
aI0
aI0
aI0
aI0
aI0
aI0
aI0
aI0
aI0
aI0
aI0
aI0
aI0
aI0
aI0
aI0
aI0
aI0
aI0
aI0
aI0
aI0
aI0
aI0
aI0
aI0
aI0
aI0
aI0
aI0
aI0
aI0
aI0
aI0
aI0
aI0
aI0
aI0
aI0
aI0
aI0
aI0
aI0
aI0
aI0
aI0
aI0
aI0
aI0
aI0
aI0
aI0
aI0
aI0
aI0
aI0
aI0
aI0
aI0
aI0
aI0
aI0
aI0
aI0
aI0
aI0
aI0
aI0
aI0
aI0
aI0
aI0
aI0
aI0
aI0
aI0
aI0
aI0
aI0
aI0
aI0
aI0
aI0
aI0
aI0
aI0
aI0
aI0
aI0
aI0
aI0
aI0
aI0
aI0
aI0
aI0
aI0
aI0
aI0
aI0
aI0
aI0
aI0
aI0
aI0
aI0
aI0
aI0
aI0
aI0
aI0
aI0
aI0
aI0
aI0
aI0
aI0
aI0
aI0
aI0
aI0
aI0
aI0
aI0
aI0
aI0
aI0
aI0
aI0
aI0
aI0
aI0
aI0
aI0
aI0
aI0
aI0
aI0
aI0
aI0
aI0
aI0
aI0
aI0
aI0
aI0
aI0
aI0
aI0
aI0
aI0
aI0
aI0
aI0
aI0
aI0
aI0
aI0
aI0
aI0
aI0
aI0
aI0
aI0
aI0
aI0
aI0
aI0
aI0
aI0
aI0
aI0
aI0
aI0
aI0
aI0
aI0
aI0
aI0
aI0
aI0
aI0
aI0
aI0
aI0
aI0
aI0
aI0
aI0
aI0
aI0
aI0
aI0
aI0
aI0
aI0
aI0
aI0
aI0
aI0
aI0
aI0
aI0
aI0
aI0
aI0
aI0
aI0
aI0
aI0
aI0
aI0
aI0
aI0
aI0
aI0
aI0
aI0
aI0
aI0
aI0
aI0
aI0
aI0
aI0
aI0
aI0
aI0
aI0
aI0
aI0
aI0
aI0
aI0
aI0
aI0
aI0
aI0
aI0
aI0
aI0
aI0
aI0
aI0
aI0
aI0
aI0
aI0
aI0
aI0
aI0
aI0
aI0
aI0
aI0
aI0
aI0
aI0
aI0
aI0
aI0
aI0
aI0
aI0
aI0
aI0
aI0
aI0
aI0
aI0
aI0
aI0
aI0
aI0
aI0
aI0
aI0
aI0
aI0
aI0
aI0
aI0
aI0
aI0
aI0
aI0
aI0
aI0
aI0
aI0
aI0
aI0
aI0
aI0
aI0
aI0
aI0
aI0
aI0
aI0
aI0
aI0
aI0
aI0
aI0
aI0
aI0
aI0
aI0
aI0
aI0
aI0
aI0
aI0
aI0
aI0
aI0
aI0
aI0
aI0
aI0
aI0
aI0
aI0
aI0
aI0
aI0
aI0
aI0
aI0
aI0
aI0
aI0
aI0
aI0
aI0
aI0
aI0
aI0
aI0
aI0
aI0
aI0
aI0
aI0
aI0
aI0
aI0
aI0
aI0
aI0
aI0
aI0
aI0
aI0
aI0
aI0
aI0
aI0
aI0
aI0
aI0
aI0
aI0
aI0
aI0
aI0
aI0
aI0
aI0
aI0
aI0
aI0
aI0
aI0
aI0
aI0
aI0
aI0
aI0
aI0
aI0
aI0
aI0
aI0
aI0
aI0
aI0
aI0
aI0
aI0
aI0
aI0
aI0
aI0
aI0
aI0
aI0
aI0
aI0
aI0
aI0
aI0
aI0
aI0
aI0
aI0
aI0
aI0
aI0
aI0
aI0
aI0
aI0
aI0
aI0
aI0
aI0
aI0
aI0
aI0
aI0
aI0
aI0
aI0
aI0
aI0
aI0
aI0
aI0
aI0
aI0
aI0
aI0
aI0
aI0
aI0
aI0
aI0
aI0
aI0
aI0
aI0
aI0
aI0
aI0
aI0
aI0
aI0
aI0
aI0
aI0
aI0
aI0
aI0
aI0
aI0
aI0
aI0
aI0
aI0
aI0
aI0
aI0
aI0
aI0
aI0
aI0
aI0
aI0
aI0
aI0
aI0
aI0
aI0
aI0
aI0
aI0
aI0
aI0
aI0
aI0
aI0
aI0
aI0
aI0
aI0
aI0
aI0
aI0
aI0
aI0
aI0
aI0
aI0
aI0
aI0
aI0
aI0
aI0
aI0
aI0
aI0
aI0
aI0
aI0
aI0
aI0
aI0
aI0
aI0
aI0
aI0
aI0
aI0
aI0
aI0
aI0
aI0
aI0
aI0
aI0
aI0
aI0
aI0
aI0
aI0
aI0
aI0
aI0
aI0
aI0
aI0
aI0
aI0
aI0
aI0
aI0
aI0
aI0
aI0
aI0
aI0
aI0
aI0
aI0
aI0
aI0
aI0
aI0
aI0
aI0
aI0
aI0
aI0
aI0
aI0
aI0
aI0
aI0
aI0
aI0
aI0
aI0
aI0
aI0
aI0
aI0
aI0
aI0
aI0
aI0
aI0
aI0
aI0
aI0
aI0
aI0
aI0
aI0
aI0
aI0
aI0
aI0
aI0
aI0
aI0
aI0
aI0
aI0
aI0
aI0
aI0
aI0
aI0
aI0
aI0
aI0
aI0
aI0
aI0
aI0
aI0
aI0
aI0
aI0
aI0
aI0
aI0
aI0
aI0
aI0
aI0
aI0
aI0
aI0
aI0
aI0
aI0
aI0
aI0
aI0
aI0
aI0
aI0
aI0
aI0
aI0
aI0
aI0
aI0
aI0
aI0
aI0
aI0
aI0
aI0
aI0
aI0
aI0
aI0
aI0
aI0
aI0
aI0
aI0
aI0
aI0
aI0
aI0
aI0
aI0
aI0
aI0
aI0
aI0
aI0
aI0
aI0
aI0
aI0
aI0
aI0
aI0
aI0
aI0
aI0
aI0
aI0
aI0
aI0
aI0
aI0
aI0
aI0
aI0
aI0
aI0
aI0
aI0
aI0
aI0
aI0
aI0
aI0
aI0
aI0
aI0
aI0
aI0
aI0
aI0
aI0
aI0
aI0
aI0
aI0
aI0
aI0
aI0
aI0
aI0
aI0
aI0
aI0
aI0
aI0
aI0
aI0
aI0
aI0
aI0
aI0
aI0
aI0
aI0
aI0
aI0
aI0
aI0
aI0
aI0
aI0
aI0
aI0
aI0
aI0
aI0
aI0
aI0
aI0
aI0
aI0
aI0
aI0
aI0
aI0
aI0
aI0
aI0
aI0
aI0
aI0
aI0
aI0
aI0
aI0
aI0
aI0
aI0
aI0
aI0
aI0
aI0
aI0
aI0
aI0
aI0
aI0
aI0
aI0
aI0
aI0
aI0
aI0
aI0
aI0
aI0
aI0
aI0
aI0
aI0
aI0
aI0
aI0
aI0
aI0
aI0
aI0
aI0
aI0
aI0
aI0
aI0
aI0
aI0
aI0
aI0
aI0
aI0
aI0
aI0
aI0
aI0
aI0
aI0
aI0
aI0
aI0
aI0
aI0
aI0
aI0
aI0
aI0
aI0
aI0
aI0
aI0
aI0
aI0
aI0
aI0
aI0
aI0
aI0
aI0
aI0
aI0
aI0
aI0
aI0
aI0
aI0
aI0
aI0
aI0
aI0
aI0
aI0
aI0
aI0
aI0
aI0
aI0
aI0
aI0
aI0
aI0
aI0
aI0
aI0
aI0
aI0
aI0
aI0
aI0
aI0
aI0
aI0
aI0
aI0
aI0
aI0
aI0
aI0
aI0
aI0
aI0
aI0
aI0
aI0
aI0
aI0
aI0
aI0
aI0
aI0
aI0
aI0
aI0
aI0
aI0
aI0
aI0
aI0
aI0
aI0
aI0
aI0
aI0
aI0
aI0
aI0
aI0
aI0
aI0
aI0
aI0
aI0
aI0
aI0
aI0
aI0
aI0
aI0
aI0
aI0
aI0
aI0
aI0
aI0
aI0
aI0
aI0
aI0
aI0
aI0
aI0
aI0
aI0
aI0
aI0
aI0
aI0
aI0
aI0
aI0
aI0
aI0
aI0
aI0
aI0
aI0
aI0
aI0
aI0
aI0
aI0
aI0
aI0
aI0
aI0
aI0
aI0
aI0
aI0
aI0
aI0
aI0
aI0
aI0
aI0
aI0
aI0
aI0
aI0
aI0
aI0
aI0
aI0
aI0
aI0
aI0
aI0
aI0
aI0
aI0
aI0
aI0
aI0
aI0
aI0
aI0
aI0
aI0
aI0
aI0
aI0
aI0
aI0
aI0
aI0
aI0
aI0
aI0
aI0
aI0
aI0
aI0
aI0
aI0
aI0
aI0
aI0
aI0
aI0
aI0
aI0
aI0
aI0
aI0
aI0
aI0
aI0
aI0
aI0
aI0
aI0
aI0
aI0
aI0
aI0
aI0
aI0
aI0
aI0
aI0
aI0
aI0
aI0
aI0
aI0
aI0
aI0
aI0
aI0
aI0
aI0
aI0
aI0
aI0
aI0
aI0
aI0
aI0
aI0
aI0
aI0
aI0
aI0
aI0
aI0
aI0
aI0
aI0
aI0
aI0
aI0
aI0
aI0
aI0
aI0
aI0
aI0
aI0
aI0
aI0
aI0
aI0
aI0
aI0
aI0
aI0
aI0
aI0
aI0
aI0
aI0
aI0
aI0
aI0
aI0
aI0
aI0
aI0
aI0
aI0
aI0
aI0
aI0
aI0
aI0
aI0
aI0
aI0
aI0
aI0
aI0
aI0
aI0
aI0
aI0
aI0
aI0
aI0
aI0
aI0
aI0
aI0
aI0
aI0
aI0
aI0
aI0
aI0
aI0
aI0
aI0
aI0
aI0
aI0
aI0
aI0
aI0
aI0
aI0
aI0
aI0
aI0
aI0
aI0
aI0
aI0
aI0
aI0
aI0
aI0
aI0
aI0
aI0
aI0
aI0
aI0
aI0
aI0
aI0
aI0
aI0
aI0
aI0
aI0
aI0
aI0
aI0
aI0
aI0
aI0
aI0
aI0
aI0
aI0
aI0
aI0
aI0
aI0
aI0
aI0
aI0
aI0
aI0
aI0
aI0
aI0
aI0
aI0
aI0
aI0
aI0
aI0
aI0
aI0
aI0
aI0
aI0
aI0
aI0
aI0
aI0
aI0
aI0
aI0
aI0
aI0
aI0
aI0
aI0
aI0
aI0
aI0
aI0
aI0
aI0
aI0
aI0
aI0
aI0
aI0
aI0
aI0
aI0
aI0
aI0
aI0
aI0
aI0
aI0
aI0
aI0
aI0
aI0
aI0
aI0
aI0
aI0
aI0
aI0
aI0
aI0
aI0
aI0
aI0
aI0
aI0
aI0
aI0
aI0
aI0
aI0
aI0
aI0
aI0
aI0
aI0
aI0
aI0
aI0
aI0
aI0
aI0
aI0
aI0
aI0
aI0
aI0
aI0
aI0
aI0
aI0
aI0
aI0
aI0
aI0
aI0
aI0
aI0
aI0
aI0
aI0
aI0
aI0
aI0
aI0
aI0
aI0
aI0
aI0
aI0
aI0
aI0
aI0
aI0
aI0
aI0
aI0
aI0
aI0
aI0
aI0
aI0
aI0
aI0
aI0
aI0
aI0
aI0
aI0
aI0
aI0
aI0
aI0
aI0
aI0
aI0
aI0
aI0
aI0
aI0
aI0
aI0
aI0
aI0
aI0
aI0
aI0
aI0
aI0
aI0
aI0
aI0
aI0
aI0
aI0
aI0
aI0
aI0
aI0
aI0
aI0
aI0
aI0
aI0
aI0
aI0
aI0
aI0
aI0
aI0
aI0
aI0
aI0
aI0
aI0
aI0
aI0
aI0
aI0
aI0
aI0
aI0
aI0
aI0
aI0
aI0
aI0
aI0
aI0
aI0
aI0
aI0
aI0
aI0
aI0
aI0
aI0
aI0
aI0
aI0
aI0
aI0
aI0
aI0
aI0
aI0
aI0
aI0
aI0
aI0
aI0
aI0
aI0
aI0
aI0
aI0
aI0
aI0
aI0
aI0
aI0
aI0
aI0
aI0
aI0
aI0
aI0
aI0
aI0
aI0
aI0
aI0
aI0
aI0
aI0
aI0
aI0
aI0
aI0
aI0
aI0
aI0
aI0
aI0
aI0
aI0
aI0
aI0
aI0
aI0
aI0
aI0
aI0
aI0
aI0
aI0
aI0
aI0
aI0
aI0
aI0
aI0
aI0
aI0
aI0
aI0
aI0
aI0
aI0
aI0
aI0
aI0
aI0
aI0
aI0
aI0
aI0
aI0
aI0
aI0
aI0
aI0
aI0
aI0
aI0
aI0
aI0
aI0
aI0
aI0
aI0
aI0
aI0
aI0
aI0
aI0
aI0
aI0
aI0
aI0
aI0
aI0
aI0
aI0
aI0
aI0
aI0
aI0
aI0
aI0
aI0
aI0
aI0
aI0
aI0
aI0
aI0
aI0
aI0
aI0
aI0
aI0
aI0
aI0
aI0
aI0
aI0
aI0
aI0
aI0
aI0
aI0
aI0
aI0
aI0
aI0
aI0
aI0
aI0
aI0
aI0
aI0
aI0
aI0
aI0
aI0
aI0
aI0
aI0
aI0
aI0
aI0
aI0
aI0
aI0
aI0
aI0
aI0
aI0
aI0
aI0
aI0
aI0
aI0
aI0
aI0
aI0
aI0
aI0
aI0
aI0
aI0
aI0
aI0
aI0
aI0
aI0
aI0
aI0
aI0
aI0
aI0
aI0
aI0
aI0
aI0
aI0
aI0
aI0
aI0
aI0
aI0
aI0
aI0
aI0
aI0
aI0
aI0
aI0
aI0
aI0
aI0
aI0
aI0
aI0
aI0
aI0
aI0
aI0
aI0
aI0
aI0
aI0
aI0
aI0
aI0
aI0
aI0
aI0
aI0
aI0
aI0
aI0
aI0
aI0
aI0
aI0
aI0
aI0
aI0
aI0
aI0
aI0
aI0
aI0
aI0
aI0
aI0
aI0
aI0
aI0
aI0
aI0
aI0
aI0
aI0
aI0
aI0
aI0
aI0
aI0
aI0
aI0
aI0
aI0
aI0
aI0
aI0
aI0
aI0
aI0
aI0
aI0
aI0
aI0
aI0
aI0
aI0
aI0
aI0
aI0
aI0
aI0
aI0
aI0
aI0
aI0
aI0
aI0
aI0
aI0
aI0
aI0
aI0
aI0
aI0
aI0
aI0
aI0
aI0
aI0
aI0
aI0
aI0
aI0
aI0
aI0
aI0
aI0
aI0
aI0
aI0
aI0
aI0
aI0
aI0
aI0
aI0
aI0
aI0
aI0
aI0
aI0
aI0
aI0
aI0
aI0
aI0
aI0
aI0
aI0
aI0
aI0
aI0
aI0
aI0
aI0
aI0
aI0
aI0
aI0
aI0
aI0
aI0
aI0
aI0
aI0
aI0
aI0
aI0
aI0
aI0
aI0
aI0
aI0
aI0
aI0
aI0
aI0
aI0
aI0
aI0
aI0
aI0
aI0
aI0
aI0
aI0
aI0
aI0
aI0
aI0
aI0
aI0
aI0
aI0
aI0
aI0
aI0
aI0
aI0
aI0
aI0
aI0
aI0
aI0
aI0
aI0
aI0
aI0
aI0
aI0
aI0
aI0
aI0
aI0
aI0
aI0
aI0
aI0
aI0
aI0
aI0
aI0
aI0
aI0
aI0
aI0
aI0
aI0
aI0
aI0
aI0
aI0
aI0
aI0
aI0
aI0
aI0
aI0
aI0
aI0
aI0
aI0
aI0
aI0
aI0
aI0
aI0
aI0
aI0
aI0
aI0
aI0
aI0
aI0
aI0
aI0
aI0
aI0
aI0
aI0
aI0
aI0
aI0
aI0
aI0
aI0
aI0
aI0
aI0
aI0
aI0
aI0
aI0
aI0
aI0
aI0
aI0
aI0
aI0
aI0
aI0
aI0
aI0
aI0
aI0
aI0
aI0
aI0
aI0
aI0
aI0
aI0
aI0
aI0
aI0
aI0
aI0
aI0
aI0
aI0
aI0
aI0
aI0
aI0
aI0
aI0
aI0
aI0
aI0
aI0
aI0
aI0
aI0
aI0
aI0
aI0
aI0
aI0
aI0
aI0
aI0
aI0
aI0
aI0
aI0
aI0
aI0
aI0
aI0
aI0
aI0
aI0
aI0
aI0
aI0
aI0
aI0
aI0
aI0
aI0
aI0
aI0
aI0
aI0
aI0
aI0
aI0
aI0
aI0
aI0
aI0
aI0
aI0
aI0
aI0
aI0
aI0
aI0
aI0
aI0
aI0
aI0
aI0
aI0
aI0
aI0
aI0
aI0
aI0
aI0
aI0
aI0
aI0
aI0
aI0
aI0
aI0
aI0
aI0
aI0
aI0
aI0
aI0
aI0
aI0
aI0
aI0
aI0
aI0
aI0
aI0
aI0
aI0
aI0
aI0
aI0
aI0
aI0
aI0
aI0
aI0
aI0
aI0
aI0
aI0
aI0
aI0
aI0
aI0
aI0
aI0
aI0
aI0
aI0
aI0
aI0
aI0
aI0
aI0
aI0
aI0
aI0
aI0
aI0
aI0
aI0
aI0
aI0
aI0
aI0
aI0
aI0
aI0
aI0
aI0
aI0
aI0
aI0
aI0
aI0
aI0
aI0
aI0
aI0
aI0
aI0
aI0
aI0
aI0
aI0
aI0
aI0
aI0
aI0
aI0
aI0
aI0
aI0
aI0
aI0
aI0
aI0
aI0
aI0
aI0
aI0
aI0
aI0
aI0
aI0
aI0
aI0
aI0
aI0
aI0
aI0
aI0
aI0
aI0
aI0
aI0
aI0
aI0
aI0
aI0
aI0
aI0
aI0
aI0
aI0
aI0
aI0
aI0
aI0
aI0
aI0
aI0
aI0
aI0
aI0
aI0
aI0
aI0
aI0
aI0
aI0
aI0
aI0
aI0
aI0
aI0
aI0
aI0
aI0
aI0
aI0
aI0
aI0
aI0
aI0
aI0
aI0
aI0
aI0
aI0
aI0
aI0
aI0
aI0
aI0
aI0
aI0
aI0
aI0
aI0
aI0
aI0
aI0
aI0
aI0
aI0
aI0
aI0
aI0
aI0
aI0
aI0
aI0
aI0
aI0
aI0
aI0
aI0
aI0
aI0
aI0
aI0
aI0
aI0
aI0
aI0
aI0
aI0
aI0
aI0
aI0
aI0
aI0
aI0
aI0
aI0
aI0
aI0
aI0
aI0
aI0
aI0
aI0
aI0
aI0
aI0
aI0
aI0
aI0
aI0
aI0
aI0
aI0
aI0
aI0
aI0
aI0
aI0
aI0
aI0
aI0
aI0
aI0
aI0
aI0
aI0
aI0
aI0
aI0
aI0
aI0
aI0
aI0
aI0
aI0
aI0
aI0
aI0
aI0
aI0
aI0
aI0
aI0
aI0
aI0
aI0
aI0
aI0
aI0
aI0
aI0
aI0
aI0
aI0
aI0
aI0
aI0
aI0
aI0
aI0
aI0
aI0
aI0
aI0
aI0
aI0
aI0
aI0
aI0
aI0
aI0
aI0
aI0
aI0
aI0
aI0
aI0
aI0
aI0
aI0
aI0
aI0
aI0
aI0
aI0
aI0
aI0
aI0
aI0
aI0
aI0
aI0
aI0
aI0
aI0
aI0
aI0
aI0
aI0
aI0
aI0
aI0
aI0
aI0
aI0
aI0
aI0
aI0
aI0
aI0
aI0
aI0
aI0
aI0
aI0
aI0
aI0
aI0
aI0
aI0
aI0
aI0
aI0
aI0
aI0
aI0
aI0
aI0
aI0
aI0
aI0
aI0
aI0
aI0
aI0
aI0
aI0
aI0
aI0
aI0
aI0
aI0
aI0
aI0
aI0
aI0
aI0
aI0
aI0
aI0
aI0
aI0
aI0
aI0
aI0
aI0
aI0
aI0
aI0
aI0
aI0
aI0
aI0
aI0
aI0
aI0
aI0
aI0
aI0
aI0
aI0
aI0
aI0
aI0
aI0
aI0
aI0
aI0
aI0
aI0
aI0
aI0
aI0
aI0
aI0
aI0
aI0
aI0
aI0
aI0
aI0
aI0
aI0
aI0
aI0
aI0
aI0
aI0
aI0
aI0
aI0
aI0
aI0
aI0
aI0
aI0
aI0
aI0
aI0
aI0
aI0
aI0
aI0
aI0
aI0
aI0
aI0
aI0
aI0
aI0
aI0
aI0
aI0
aI0
aI0
aI0
aI0
aI0
aI0
aI0
aI0
aI0
aI0
aI0
aI0
aI0
aI0
aI0
aI0
aI0
aI0
aI0
aI0
aI0
aI0
aI0
aI0
aI0
aI0
aI0
aI0
aI0
aI0
aI0
aI0
aI0
aI0
aI0
aI0
aI0
aI0
aI0
aI0
aI0
aI0
aI0
aI0
aI0
aI0
aI0
aI0
aI0
aI0
aI0
aI0
aI0
aI0
aI0
aI0
aI0
aI0
aI0
aI0
aI0
aI0
aI0
aI0
aI0
aI0
aI0
aI0
aI0
aI0
aI0
aI0
aI0
aI0
aI0
aI0
aI0
aI0
aI0
aI0
aI0
aI0
aI0
aI0
aI0
aI0
aI0
aI0
aI0
aI0
aI0
aI0
aI0
aI0
aI0
aI0
aI0
aI0
aI0
aI0
aI0
aI0
aI0
aI0
aI0
aI0
asS'costPerLaneChange'
p28
(lp29
F0.42289805252681495
aF0.4759979058985452
aF0.5387639249918467
aF0.6128931190829964
aF0.6919394974369479
aF0.6619228668056818
aF0.6902783324621324
aF0.7053751972483044
aF0.7320203707533287
aF0.7724580110970471
aF0.7411399566011995
aF0.7406043289050938
aF0.7893726227942344
aF0.7550050083162482
aF0.8105789774227116
aF0.7765985466647294
aF0.8693811727233073
aF0.783080219547972
aF0.7917236028944775
aF0.765159081038025
aF0.7640325514558433
aF0.7327149558777247
aF0.6845254911381339
aF0.6771376779389013
aF0.6645139442390805
aF0.6538598365475617
aF0.7085118563971552
aF0.7107297420656247
aF0.6576314993189358
aF0.6932730772738929
aF0.6984361989435164
aF0.6695515253155598
aF0.6304243471956024
aF0.6402154337031697
aF0.6516238888203449
aF0.6572672007489853
aF0.6617992143938379
aF0.6431488918484453
aF0.6580197451389296
aF0.6215219149912844
aF0.6717434345538765
aF0.6774744807115579
aF0.6739095236622274
aF0.683327913905089
aF0.6850906092671608
aF0.6944795424843831
aF0.7148115662202932
aF0.7320702031731283
aF0.687423926758837
aF0.6838784718309876
aF0.677841254110531
aF0.6862983461389928
aF0.6825025490247446
aF0.6688497943219064
aF0.6659801123370859
aF0.6687317032002316
aF0.6766017613877898
aF0.6735037083256512
aF0.6828416169254269
aF0.6628724118520097
aF0.617296963911212
aF0.6839860039557644
aF0.6624575202487951
aF0.6715280914685334
aF0.6519944183076838
aF0.6561638899238205
aF0.6749482833871505
aF0.6849459462576462
aF0.6777610130730417
aF0.6932770618451535
aF0.6720788850429503
aF0.650045357190805
aF0.623436940282581
aF0.7028360665748639
aF0.6885285888188172
aF0.6839060381614006
aF0.7246529576349007
aF0.6949561102675628
aF0.6853554979238975
aF0.7214448392524844
aF0.702537494854643
aF0.6588688550904634
aF0.6625115931270431
aF0.7271017429264839
aF0.6838447208676689
aF0.6263587303523324
aF0.6378734549239703
aF0.649270584392909
aF0.6809503306744673
aF0.6882189001277765
aF0.6773103919355248
aF0.6969749161889236
aF0.7164842264787115
aF0.6928345127221723
aF0.7059991203676098
aF0.654750924746148
aF0.6423003923442119
aF0.6887920126494989
aF0.6878660361837989
aF0.7310318406658087
aF0.3343192572717748
aF0.33842572432720885
aF0.3384516720447141
aF0.3385708393399227
aF0.33688387731712505
aF0.3374461979913908
aF0.3369532545431707
aF0.336933270349324
aF0.33744619799139086
aF0.3374461979913908
aF0.33853847556010885
aF0.3397466007497515
aF0.33801271508859915
aF0.3394439161762829
aF0.3389544090713756
aF0.3379626149371453
aF0.3353805302083732
aF0.3390387845164097
aF0.33855442121804635
aF0.33966264444470184
aF0.3356529706443226
aF0.3396789418450938
aF0.3358940992665593
aF0.33797337362351515
aF0.33907291137051726
aF0.33639184672714234
aF0.3379147985532791
aF0.3389060689726581
aF0.33800030960471866
aF0.33693418232642425
aF0.3379661520395134
aF0.3385005492556395
aF0.33843208488783105
aF0.338486106087636
aF0.33420596231816563
aF0.3332543197554729
aF0.3359673676467306
aF0.3368710973018008
aF0.3374461979913909
aF0.33804791595050654
aF0.3369768502985047
aF0.3390060601357587
aF0.3394333342165748
aF0.3390277248877638
aF0.3374461979913908
aF0.3379489350180524
aF0.33850054925563944
aF0.33849327786761013
aF0.33837764941502146
aF0.33836635909473506
asba(iparams
Statistics
p30
(dp31
g8
(lp32
I9
aI14
aI23
aI13
aI16
aI25
aI28
aI22
aI42
aI35
aI29
aI35
aI36
aI29
aI34
aI36
aI36
aI38
aI37
aI46
aI36
aI39
aI35
aI33
aI36
aI27
aI44
aI37
aI30
aI34
aI38
aI39
aI32
aI33
aI38
aI29
aI30
aI33
aI34
aI38
aI39
aI31
aI32
aI29
aI37
aI35
aI36
aI31
aI40
aI28
aI23
aI39
aI33
aI39
aI43
aI37
aI50
aI40
aI33
aI27
aI33
aI30
aI38
aI30
aI39
aI40
aI40
aI25
aI37
aI32
aI30
aI24
aI33
aI43
aI30
aI41
aI34
aI42
aI31
aI35
aI33
aI34
aI36
aI35
aI35
aI36
aI28
aI28
aI43
aI37
aI37
aI36
aI35
aI41
aI39
aI31
aI24
aI38
aI25
aI37
aI41
aI38
aI32
aI35
aI37
aI36
aI46
aI40
aI38
aI37
aI27
aI46
aI38
aI27
aI27
aI48
aI38
aI42
aI39
aI34
aI36
aI30
aI40
aI24
aI32
aI37
aI43
aI33
aI37
aI42
aI39
aI38
aI28
aI43
aI40
aI35
aI37
aI42
aI27
aI34
aI32
aI38
aI35
aI33
aI34
aI44
aI36
aI32
aI35
aI29
asg10
g11
sg12
(lp33
I170
aI211
aI237
aI249
aI251
aI270
aI271
aI296
aI297
aI293
aI302
aI288
aI290
aI266
aI293
aI300
aI304
aI298
aI299
aI300
aI297
aI290
aI281
aI288
aI293
aI282
aI307
aI299
aI278
aI298
aI298
aI284
aI285
aI299
aI277
aI286
aI276
aI274
aI297
aI300
aI299
aI287
aI291
aI289
aI284
aI282
aI274
aI299
aI270
aI275
aI275
aI286
aI289
aI296
aI297
aI325
aI315
aI299
aI285
aI290
aI290
aI296
aI296
aI294
aI306
aI301
aI290
aI281
aI300
aI288
aI278
aI302
aI299
aI302
aI287
aI296
aI301
aI303
aI301
aI298
aI291
aI289
aI292
aI282
aI304
aI298
aI291
aI288
aI305
aI296
aI289
aI283
aI298
aI287
aI299
aI283
aI280
aI285
aI292
aI296
aI298
aI288
aI280
aI288
aI290
aI297
aI313
aI304
aI306
aI291
aI287
aI292
aI285
aI298
aI311
aI315
aI306
aI293
aI287
aI286
aI290
aI307
aI295
aI306
aI307
aI294
aI287
aI285
aI290
aI293
aI285
aI264
aI292
aI298
aI294
aI285
aI298
aI276
aI280
aI293
aI270
aI281
aI283
aI270
aI278
aI298
aI286
aI286
aI292
aI287
asg14
(lp34
I170
aI211
aI237
aI249
aI251
aI270
aI271
aI296
aI297
aI293
aI302
aI288
aI290
aI266
aI293
aI300
aI304
aI298
aI299
aI300
aI297
aI290
aI281
aI288
aI293
aI282
aI307
aI299
aI278
aI298
aI298
aI284
aI285
aI299
aI277
aI286
aI276
aI274
aI297
aI300
aI299
aI287
aI291
aI289
aI284
aI282
aI274
aI299
aI270
aI275
aI275
aI286
aI289
aI296
aI297
aI325
aI315
aI299
aI285
aI290
aI290
aI296
aI296
aI294
aI306
aI301
aI290
aI281
aI300
aI288
aI278
aI302
aI299
aI302
aI287
aI296
aI301
aI303
aI301
aI298
aI291
aI289
aI292
aI282
aI304
aI298
aI291
aI288
aI305
aI296
aI289
aI283
aI298
aI287
aI299
aI283
aI280
aI285
aI292
aI296
aI298
aI288
aI280
aI288
aI290
aI297
aI313
aI304
aI306
aI291
aI287
aI292
aI285
aI298
aI311
aI315
aI306
aI293
aI287
aI286
aI290
aI307
aI295
aI306
aI307
aI294
aI287
aI285
aI290
aI293
aI285
aI264
aI292
aI298
aI294
aI285
aI298
aI276
aI280
aI293
aI270
aI281
aI283
aI270
aI278
aI298
aI286
aI286
aI292
aI287
asg5
(lp35
F2.96901798248291
aF3.895174026489258
aF4.268840074539185
aF4.655350923538208
aF4.9035680294036865
aF5.238292932510376
aF5.110260009765625
aF5.93956184387207
aF5.915531873703003
aF5.548821926116943
aF5.811929941177368
aF5.702409982681274
aF5.621518850326538
aF5.245661020278931
aF5.728528022766113
aF5.717211008071899
aF5.876418113708496
aF5.76446795463562
aF5.931793928146362
aF6.099017858505249
aF5.810341835021973
aF5.6298558712005615
aF5.4287660121917725
aF5.507099151611328
aF5.572036027908325
aF5.760187864303589
aF6.137964963912964
aF5.77365779876709
aF5.672482013702393
aF5.656810998916626
aF5.8226659297943115
aF5.5781450271606445
aF5.67100191116333
aF5.917234897613525
aF5.701679944992065
aF5.5156409740448
aF5.345197916030884
aF5.418987989425659
aF5.850291967391968
aF5.969353914260864
aF5.959321022033691
aF5.610002040863037
aF5.589990854263306
aF5.4789159297943115
aF5.381188154220581
aF5.448380947113037
aF5.52043080329895
aF5.6608757972717285
aF5.176892995834351
aF5.148611068725586
aF5.400868892669678
aF5.901863098144531
aF5.7275550365448
aF5.948369026184082
aF5.804419994354248
aF6.2095160484313965
aF6.1559998989105225
aF5.675029993057251
aF5.504343032836914
aF5.529415845870972
aF5.7242560386657715
aF5.7977681159973145
aF5.704735040664673
aF5.647097110748291
aF6.014288902282715
aF5.834528923034668
aF5.518734931945801
aF5.477519989013672
aF5.893463850021362
aF5.596996068954468
aF5.516639947891235
aF5.885349988937378
aF5.974370002746582
aF5.761076927185059
aF5.578298091888428
aF5.627772808074951
aF5.7976109981536865
aF6.031935930252075
aF6.0747551918029785
aF5.745595932006836
aF5.74783992767334
aF5.47812819480896
aF5.8584630489349365
aF5.737893104553223
aF6.054285049438477
aF5.784710884094238
aF5.882763862609863
aF5.833479881286621
aF6.115928888320923
aF5.806548833847046
aF5.747576951980591
aF5.630958080291748
aF5.768273115158081
aF5.659211874008179
aF5.72551703453064
aF5.6688549518585205
aF5.415933847427368
aF5.499027967453003
aF5.786151885986328
aF6.064640998840332
aF6.019320964813232
aF5.600659132003784
aF5.632536172866821
aF5.667910099029541
aF5.638538122177124
aF5.955817937850952
aF6.22555685043335
aF5.838555097579956
aF6.025234937667847
aF5.696211099624634
aF5.782989978790283
aF5.9582719802856445
aF5.70526909828186
aF5.731101989746094
aF6.026231050491333
aF6.20447301864624
aF5.957563877105713
aF5.766446828842163
aF5.6465840339660645
aF5.817664861679077
aF5.548764944076538
aF5.803289890289307
aF5.948073863983154
aF5.943363189697266
aF5.898879051208496
aF5.631285905838013
aF5.648700952529907
aF5.4876868724823
aF5.729315996170044
aF5.74639105796814
aF5.415715217590332
aF5.33577299118042
aF5.586988925933838
aF5.874332904815674
aF5.825494050979614
aF5.855801105499268
aF5.864001989364624
aF5.547696113586426
aF5.678839206695557
aF5.789030075073242
aF5.50928807258606
aF5.692122936248779
aF5.543133020401001
aF5.391096830368042
aF5.680376052856445
aF6.018347978591919
aF5.992547988891602
aF5.786829948425293
aF5.847440004348755
aF5.7975029945373535
asg17
g1
sg18
(lp36
I183
aI228
aI257
aI275
aI285
aI304
aI297
aI332
aI344
aI325
aI333
aI327
aI323
aI308
aI327
aI330
aI336
aI333
aI333
aI349
aI331
aI324
aI313
aI322
aI330
aI327
aI344
aI329
aI320
aI328
aI339
aI326
aI331
aI335
aI320
aI316
aI312
aI319
aI335
aI342
aI348
aI326
aI325
aI314
aI317
aI317
aI311
aI327
aI307
aI308
aI314
aI328
aI324
aI336
aI330
aI356
aI350
aI333
aI320
aI327
aI329
aI332
aI332
aI328
aI347
aI337
aI317
aI319
aI333
aI325
aI316
aI334
aI335
aI330
aI317
aI334
aI333
aI347
aI340
aI327
aI329
aI320
aI327
aI331
aI343
aI335
aI322
aI330
aI340
aI335
aI324
aI330
aI332
aI318
aI322
aI325
aI315
aI326
aI330
aI335
aI339
aI317
aI308
aI321
aI326
aI340
aI356
aI334
aI343
aI327
aI325
aI329
aI324
aI334
aI346
aI356
aI341
aI325
aI321
aI324
aI329
aI346
aI337
aI340
aI340
aI329
aI317
aI316
aI320
aI327
aI315
aI310
aI318
aI334
aI328
aI332
aI334
aI317
aI322
aI327
aI313
aI319
aI313
aI303
aI320
aI340
aI332
aI325
aI330
aI330
asg20
(lp37
I184
aI229
aI259
aI277
aI286
aI305
aI300
aI333
aI346
aI328
aI333
aI328
aI325
aI309
aI330
aI332
aI338
aI335
aI335
aI352
aI333
aI326
aI315
aI326
aI333
aI327
aI347
aI333
aI324
aI331
aI342
aI332
aI335
aI338
aI324
aI319
aI312
aI323
aI341
aI346
aI350
aI331
aI329
aI317
aI319
aI319
aI313
aI329
aI309
aI311
aI316
aI330
aI329
aI340
aI333
aI361
aI355
aI336
aI322
aI330
aI332
aI336
aI335
aI333
aI349
aI340
aI321
aI321
aI337
aI329
aI319
aI339
aI339
aI333
aI321
aI338
aI336
aI351
aI343
aI330
aI332
aI322
aI332
aI335
aI346
aI339
aI325
aI332
aI342
aI338
aI326
aI334
aI335
aI321
aI328
aI328
aI319
aI330
aI333
aI339
aI344
aI320
aI311
aI323
aI329
aI343
aI358
aI338
aI343
aI329
aI325
aI331
aI325
aI335
aI348
aI361
aI343
aI328
aI324
aI326
aI331
aI347
aI341
aI343
aI342
aI332
aI320
aI317
aI325
aI330
aI320
aI314
aI320
aI338
aI331
aI334
aI337
aI320
aI325
aI329
aI316
aI321
aI317
aI307
aI323
aI344
aI335
aI327
aI332
aI332
asg22
(lp38
sg24
(lp39
I31
aI40
aI43
aI43
aI35
aI51
aI40
aI49
aI33
aI51
aI59
aI55
aI49
aI60
aI46
aI54
aI48
aI56
aI49
aI45
aI54
aI54
aI50
aI55
aI50
aI65
aI43
aI53
aI43
aI60
aI55
aI47
aI54
aI52
aI44
aI60
aI55
aI53
aI52
aI41
aI56
aI67
aI55
aI56
aI59
aI62
aI45
aI58
aI53
aI49
aI50
aI47
aI52
aI44
aI47
aI53
aI48
aI62
aI59
aI57
aI53
aI49
aI54
aI63
aI47
aI47
aI54
aI58
aI46
aI56
aI42
aI46
aI62
aI63
aI55
aI51
aI56
aI59
aI57
aI48
aI62
aI57
aI40
aI48
aI52
aI51
aI58
aI48
aI38
aI53
aI55
aI54
aI61
aI58
aI47
aI66
aI62
aI53
aI51
aI55
aI45
aI52
aI52
aI48
aI61
aI55
aI50
aI45
aI48
aI41
aI57
aI42
aI44
aI55
aI49
aI51
aI49
aI60
aI53
aI46
aI51
aI61
aI48
aI46
aI69
aI51
aI62
aI53
aI50
aI48
aI68
aI55
aI55
aI48
aI51
aI50
aI47
aI44
aI53
aI52
aI53
aI60
aI50
aI51
aI43
aI44
aI51
aI53
aI46
aI52
asg26
g27
sg28
(lp40
F0.41644773829656806
aF0.44567669627812734
aF0.47381295628737596
aF0.5050845491932788
aF0.5271071365831764
aF0.5356965117292364
aF0.5514289665978818
aF0.5323897785877741
aF0.523041362371062
aF0.5408630312070115
aF0.5366172700335947
aF0.5328834514524615
aF0.5465459791527306
aF0.5703594622578052
aF0.5476294371142143
aF0.5587812098993687
aF0.5592553452076895
aF0.545603384521231
aF0.5413805884087154
aF0.5613132667365207
aF0.5421289020952309
aF0.5389833646130735
aF0.5458879741184447
aF0.5443367455111003
aF0.5233001182918338
aF0.5210671018025116
aF0.49830997146014855
aF0.4936983782752209
aF0.5118438461419231
aF0.5121417759383782
aF0.4920993180115939
aF0.499871374129273
aF0.49441758386526735
aF0.5085108225261449
aF0.5180164167414024
aF0.5010952973590177
aF0.5226135982767287
aF0.5203313013902215
aF0.5173027442655258
aF0.5116807568406553
aF0.511220068451008
aF0.5268920451473266
aF0.5174750681045983
aF0.5228661267556021
aF0.5353687885046385
aF0.527588582554316
aF0.5124807978888981
aF0.4998769227409701
aF0.528165072647439
aF0.5486869017546969
aF0.5315078225842256
aF0.5106816254746446
aF0.5226034510081078
aF0.508733935197426
aF0.5008289132876406
aF0.4880503615460184
aF0.4935015585686321
aF0.5111627487607495
aF0.5183935995638785
aF0.5182123850149465
aF0.5167870074666108
aF0.5037750894537448
aF0.5134925821420349
aF0.4930556659098569
aF0.4988628832141323
aF0.5014042890911278
aF0.5064597815190779
aF0.516676532564326
aF0.49306489422798233
aF0.5013941212836083
aF0.5190352539739768
aF0.5017549580948232
aF0.5036852818225371
aF0.4992688465484367
aF0.5075797157861283
aF0.4950818164384851
aF0.5118861805532093
aF0.4933894156219074
aF0.5109896352701003
aF0.49957230878470976
aF0.5001095500749739
aF0.5004472207707852
aF0.5005353561212733
aF0.5056604340126177
aF0.4993980133626304
aF0.5076977525111025
aF0.5065168469225556
aF0.500222433096138
aF0.4946903959321027
aF0.49243114508410485
aF0.4925076452754073
aF0.5212524240375536
aF0.5106412641165492
aF0.5077264762639614
aF0.5190349767296106
aF0.5090602852709817
aF0.514092954226871
aF0.5138946566719838
aF0.5100404344601677
aF0.49528201523755705
aF0.33925733980492145
aF0.3382369614395792
aF0.33907291137051926
aF0.33750402593063084
aF0.33954035774383146
aF0.33923540013678444
aF0.3384961495372541
aF0.3381953423107276
aF0.33744619799139325
aF0.34135925422984126
aF0.33929774167495136
aF0.3403059452560672
aF0.3377125604160452
aF0.3387199109280689
aF0.3411076107418382
aF0.34156954139041074
aF0.3394308591946846
aF0.3377052877218568
aF0.33797521047240964
aF0.33694445198159734
aF0.3384932778676122
aF0.33991894362741554
aF0.3385037586264909
aF0.3379423632922159
aF0.33843529624580215
aF0.3369297810456387
aF0.33800422518756723
aF0.33877801011465436
aF0.3382889370244214
aF0.33773370827902494
aF0.33957709738861114
aF0.3371901901589091
aF0.3395260141838833
aF0.33622837245908127
aF0.33979839813589413
aF0.3401098222379154
aF0.34101259421408603
aF0.3385463906149564
aF0.3382595546809559
aF0.3385109774704164
aF0.33913316001419047
aF0.33774598629842556
aF0.339860401592923
aF0.3368838773171267
aF0.3393576837366491
aF0.33999362386474524
aF0.3393042156039146
aF0.3366499047288834
aF0.3379661520395154
aF0.33823971671291814
asba(iparams
Statistics
p41
(dp42
g8
(lp43
I15
aI17
aI20
aI15
aI24
aI18
aI29
aI34
aI39
aI39
aI47
aI43
aI49
aI43
aI54
aI54
aI56
aI55
aI68
aI57
aI50
aI59
aI56
aI60
aI64
aI50
aI45
aI63
aI60
aI46
aI56
aI58
aI38
aI54
aI52
aI73
aI54
aI53
aI60
aI54
aI52
aI60
aI57
aI70
aI55
aI49
aI58
aI56
aI53
aI61
aI57
aI56
aI55
aI68
aI53
aI68
aI56
aI56
aI56
aI58
aI46
aI51
aI61
aI62
aI61
aI67
aI52
aI62
aI46
aI54
aI54
aI63
aI54
aI45
aI67
aI43
aI59
aI60
aI65
aI50
aI56
aI54
aI45
aI60
aI82
aI52
aI51
aI42
aI58
aI61
aI52
aI59
aI49
aI54
aI54
aI56
aI63
aI55
aI59
aI66
aI57
aI52
aI49
aI53
aI56
aI60
aI61
aI50
aI62
aI43
aI67
aI61
aI48
aI54
aI60
aI56
aI37
aI53
aI61
aI59
aI58
aI60
aI51
aI58
aI63
aI55
aI59
aI54
aI46
aI54
aI51
aI63
aI65
aI60
aI61
aI62
aI62
aI61
aI57
aI73
aI44
aI52
aI53
aI70
aI54
aI52
aI53
aI60
aI54
aI64
asg10
g11
sg12
(lp44
I195
aI250
aI277
aI312
aI337
aI339
aI359
aI361
aI385
aI374
aI403
aI412
aI393
aI398
aI403
aI402
aI394
aI419
aI412
aI418
aI421
aI427
aI422
aI433
aI417
aI418
aI413
aI437
aI412
aI429
aI432
aI419
aI399
aI421
aI411
aI427
aI419
aI426
aI424
aI420
aI411
aI414
aI427
aI435
aI404
aI408
aI425
aI430
aI412
aI437
aI439
aI408
aI403
aI415
aI439
aI447
aI426
aI444
aI441
aI420
aI429
aI417
aI442
aI455
aI445
aI418
aI417
aI401
aI405
aI409
aI413
aI436
aI420
aI421
aI431
aI401
aI425
aI436
aI410
aI407
aI396
aI390
aI401
aI432
aI427
aI402
aI401
aI410
aI415
aI427
aI414
aI421
aI417
aI411
aI430
aI438
aI421
aI431
aI412
aI451
aI416
aI410
aI415
aI433
aI428
aI423
aI424
aI421
aI428
aI433
aI427
aI426
aI426
aI441
aI428
aI401
aI415
aI396
aI429
aI415
aI426
aI432
aI423
aI438
aI450
aI449
aI426
aI435
aI421
aI436
aI444
aI455
aI428
aI430
aI439
aI426
aI430
aI429
aI445
aI427
aI423
aI424
aI435
aI419
aI399
aI401
aI432
aI424
aI410
aI407
asg14
(lp45
I195
aI250
aI277
aI312
aI337
aI339
aI359
aI361
aI385
aI374
aI403
aI412
aI393
aI398
aI403
aI402
aI394
aI419
aI412
aI418
aI421
aI427
aI422
aI433
aI417
aI418
aI413
aI437
aI412
aI429
aI432
aI419
aI399
aI421
aI411
aI427
aI419
aI426
aI424
aI420
aI411
aI414
aI427
aI435
aI404
aI408
aI425
aI430
aI412
aI437
aI439
aI408
aI403
aI415
aI439
aI447
aI426
aI444
aI441
aI420
aI429
aI417
aI442
aI455
aI445
aI418
aI417
aI401
aI405
aI409
aI413
aI436
aI420
aI421
aI431
aI401
aI425
aI436
aI410
aI407
aI396
aI390
aI401
aI432
aI427
aI402
aI401
aI410
aI415
aI427
aI414
aI421
aI417
aI411
aI430
aI438
aI421
aI431
aI412
aI451
aI416
aI410
aI415
aI433
aI428
aI423
aI424
aI421
aI428
aI433
aI427
aI426
aI426
aI441
aI428
aI401
aI415
aI396
aI429
aI415
aI426
aI432
aI423
aI438
aI450
aI449
aI426
aI435
aI421
aI436
aI444
aI455
aI428
aI430
aI439
aI426
aI430
aI429
aI445
aI427
aI423
aI424
aI435
aI419
aI399
aI401
aI432
aI424
aI410
aI407
asg5
(lp46
F3.2631068229675293
aF4.235302925109863
aF5.284837007522583
aF6.166223049163818
aF6.353417873382568
aF6.657677173614502
aF7.394531965255737
aF7.221596956253052
aF7.656239032745361
aF7.559085130691528
aF7.895351886749268
aF8.341145038604736
aF7.879496812820435
aF7.754856824874878
aF8.09917402267456
aF8.134639978408813
aF8.052392959594727
aF8.61403203010559
aF8.400738000869751
aF8.35633397102356
aF8.644861936569214
aF8.810657024383545
aF8.578504085540771
aF9.057811975479126
aF8.64164113998413
aF8.706832885742188
aF8.265673875808716
aF8.698464155197144
aF8.728724002838135
aF8.665693044662476
aF8.570631980895996
aF8.399230003356934
aF8.180274963378906
aF8.367203950881958
aF8.725097894668579
aF8.466580867767334
aF8.416507005691528
aF8.780908107757568
aF9.400558948516846
aF8.885699033737183
aF8.63558292388916
aF8.617289066314697
aF8.974902868270874
aF8.779376983642578
aF8.394009113311768
aF8.737649917602539
aF8.935760974884033
aF8.444630861282349
aF8.400898933410645
aF8.991679191589355
aF9.1562020778656
aF8.63709282875061
aF8.711890935897827
aF8.563215017318726
aF8.897963047027588
aF9.107338190078735
aF9.035588026046753
aF9.7188720703125
aF9.50897216796875
aF8.706690788269043
aF8.75334095954895
aF8.648744821548462
aF9.145740032196045
aF9.154968976974487
aF9.407007932662964
aF8.553699016571045
aF8.191406011581421
aF7.943632125854492
aF7.9574480056762695
aF8.284953117370605
aF8.634484052658081
aF9.368106126785278
aF8.769989967346191
aF8.93808388710022
aF8.86177682876587
aF8.298864126205444
aF8.597648859024048
aF9.056111097335815
aF8.473436117172241
aF8.07035207748413
aF8.081644773483276
aF8.077100992202759
aF8.102133989334106
aF9.260571002960205
aF8.759090185165405
aF7.9857470989227295
aF8.173083066940308
aF8.619683027267456
aF8.585564136505127
aF9.019346952438354
aF8.819829940795898
aF8.751426935195923
aF8.723355054855347
aF8.727720975875854
aF8.870103120803833
aF8.92293405532837
aF8.695794105529785
aF9.202494859695435
aF9.060763835906982
aF9.49224591255188
aF8.519387006759644
aF8.50757122039795
aF8.456928968429565
aF8.943811893463135
aF9.027315139770508
aF8.985658168792725
aF8.895057916641235
aF9.219353199005127
aF8.93939995765686
aF8.832005023956299
aF9.662462949752808
aF9.333250999450684
aF8.762485980987549
aF9.100898027420044
aF9.360038042068481
aF8.337507963180542
aF8.514333963394165
aF8.408341884613037
aF8.705999851226807
aF8.643541097640991
aF9.153637886047363
aF9.181680917739868
aF8.935638904571533
aF9.361523866653442
aF9.268357038497925
aF9.1825270652771
aF9.043007135391235
aF8.863765954971313
aF8.709501028060913
aF8.929123878479004
aF9.511382102966309
aF9.472166061401367
aF8.974472999572754
aF9.015995025634766
aF9.098508834838867
aF9.025113821029663
aF9.319230079650879
aF8.859133958816528
aF8.810366868972778
aF8.780826091766357
aF8.750253915786743
aF8.785928964614868
aF9.105856895446777
aF9.166457891464233
aF8.477439165115356
aF8.427661180496216
aF8.857603073120117
aF8.66698408126831
aF8.841063022613525
aF8.456745862960815
asg17
g1
sg18
(lp47
I212
aI271
aI315
aI365
aI392
aI397
aI434
aI432
aI450
aI446
aI463
aI476
aI469
aI457
aI478
aI464
aI469
aI499
aI495
aI492
aI517
aI509
aI497
aI525
aI496
aI489
aI488
aI514
aI500
aI506
aI502
aI492
aI479
aI483
aI498
aI499
aI497
aI513
aI516
aI511
aI501
aI498
aI513
aI515
aI484
aI501
aI513
aI496
aI505
aI525
aI514
aI492
aI492
aI496
aI521
aI536
aI535
aI548
aI531
aI512
aI506
aI504
aI530
aI528
aI529
aI501
aI479
aI474
aI472
aI476
aI492
aI514
aI508
aI512
aI511
aI487
aI501
aI517
aI489
aI475
aI471
aI471
aI470
aI518
aI509
aI479
aI482
aI496
aI495
aI509
aI507
aI496
aI501
aI494
aI511
aI508
aI504
aI528
aI522
aI538
aI499
aI486
aI497
aI511
aI521
aI517
aI507
aI519
aI512
aI505
aI526
aI519
aI517
aI523
aI520
aI484
aI494
aI479
aI507
aI504
aI523
aI513
aI517
aI535
aI533
aI528
aI511
aI512
aI507
aI520
aI535
aI545
aI515
aI523
aI523
aI512
aI521
aI512
aI523
aI515
aI506
aI499
aI512
aI504
aI489
aI480
aI502
aI500
aI505
aI490
asg20
(lp48
I213
aI272
aI318
aI368
aI394
aI399
aI435
aI433
aI451
aI450
aI466
aI480
aI473
aI461
aI482
aI468
aI472
aI505
aI501
aI497
aI524
aI514
aI502
aI530
aI499
aI494
aI492
aI520
aI505
aI509
aI505
aI496
aI482
aI486
aI500
aI500
aI498
aI518
aI518
aI515
aI504
aI502
aI518
aI520
aI488
aI504
aI516
aI499
aI508
aI531
aI517
aI496
aI499
aI503
aI526
aI540
aI541
aI553
aI536
aI519
aI511
aI507
aI534
aI532
aI533
aI508
aI486
aI478
aI477
aI480
aI495
aI518
aI513
aI518
aI516
aI491
aI503
aI521
aI493
aI478
aI478
aI475
aI475
aI523
aI514
aI484
aI486
aI501
aI501
aI515
aI511
aI501
aI505
aI500
aI517
aI514
aI509
aI535
aI528
aI543
aI503
aI489
aI500
aI515
aI524
aI519
aI510
aI524
aI516
aI510
aI529
aI524
aI520
aI526
aI522
aI489
aI499
aI483
aI510
aI507
aI528
aI515
aI522
aI539
aI536
aI532
aI518
aI517
aI513
aI524
aI539
aI551
aI520
aI528
aI528
aI517
aI524
aI518
aI528
aI520
aI511
aI504
aI519
aI509
aI494
aI484
aI505
aI502
aI510
aI495
asg22
(lp49
sg24
(lp50
I40
aI52
aI62
aI64
aI71
aI75
aI62
aI67
aI70
aI69
aI76
aI77
aI72
aI77
aI73
aI75
aI66
aI66
aI75
aI72
aI74
aI82
aI78
aI71
aI83
aI84
aI75
aI71
aI67
aI79
aI78
aI75
aI87
aI68
aI76
aI71
aI77
aI75
aI68
aI77
aI74
aI82
aI71
aI78
aI77
aI75
aI74
aI72
aI84
aI79
aI79
aI75
aI69
aI66
aI64
aI62
aI78
aI83
aI77
aI79
aI66
aI67
aI81
aI76
aI98
aI76
aI72
aI72
aI87
aI80
aI65
aI61
aI71
aI74
aI68
aI86
aI76
aI74
aI70
aI87
aI79
aI76
aI93
aI81
aI76
aI74
aI76
aI87
aI68
aI72
aI77
aI75
aI72
aI70
aI88
aI72
aI71
aI65
aI74
aI75
aI83
aI77
aI74
aI83
aI78
aI66
aI87
aI80
aI68
aI84
aI56
aI66
aI86
aI76
aI89
aI74
aI82
aI77
aI72
aI80
aI85
aI57
aI76
aI67
aI79
aI69
aI80
aI68
aI62
aI83
aI77
aI84
aI67
aI84
aI77
aI78
aI75
aI79
aI80
aI65
aI76
aI81
aI84
aI73
aI71
aI67
aI73
aI80
aI75
aI69
asg26
g27
sg28
(lp51
F0.40242634640996167
aF0.4270041284537769
aF0.43542163191959943
aF0.4637436586743445
aF0.4868934502614065
aF0.49350122941539576
aF0.49274996350314804
aF0.4995792141536194
aF0.4941828488899257
aF0.491033810156002
aF0.4786836697919709
aF0.48919404839414904
aF0.5030344539483014
aF0.49646020427140475
aF0.5215336221522685
aF0.5124009850563828
aF0.5208783326964643
aF0.4952969254527638
aF0.5105712187379939
aF0.5002956719527558
aF0.5060884535088717
aF0.4887231043948409
aF0.4710050659719952
aF0.4584163457504993
aF0.46198557798368994
aF0.46324128900128064
aF0.45865702329621433
aF0.4516134878802999
aF0.4632711241524965
aF0.44984949234776234
aF0.45106083986825635
aF0.4626991071571918
aF0.46563748304375213
aF0.47136186719404055
aF0.46320785978293283
aF0.455749595174172
aF0.46360499368494723
aF0.4536509210033003
aF0.455631382734977
aF0.451333425276193
aF0.4544231175049719
aF0.464538326194342
aF0.45756642739140757
aF0.44814373181002964
aF0.46102267996005625
aF0.45823982385718925
aF0.4616061218927406
aF0.4459581585968344
aF0.4605893126682716
aF0.45746261883025335
aF0.45270768116069326
aF0.4535462678203398
aF0.4564523527604175
aF0.46278875695781224
aF0.4539382151044708
aF0.4530794037997219
aF0.46612607244156207
aF0.4624491941082665
aF0.45285462668113513
aF0.4550497829393901
aF0.4565942858748511
aF0.4596788846657385
aF0.45387222315710646
aF0.4546802220625846
aF0.4524809013465155
aF0.46112172483247726
aF0.47523617735845397
aF0.4744440638388306
aF0.4669042756706059
aF0.4646478830630659
aF0.4625170211449888
aF0.46543927927578604
aF0.45790206439156544
aF0.4561129242365896
aF0.4441405150780684
aF0.45908677686097193
aF0.4594626877931858
aF0.445877988708558
aF0.4574451219888779
aF0.4496859952893127
aF0.46660862914263357
aF0.47108348279325807
aF0.4636729553447845
aF0.4557861445776289
aF0.46007602326611374
aF0.45947619669827683
aF0.45559371847383834
aF0.461210321089257
aF0.4654924796539278
aF0.46952028539584717
aF0.46243968069875596
aF0.46096169296449696
aF0.46251058639841597
aF0.4567837460617508
aF0.45696414463201995
aF0.4516424322237065
aF0.4564537778204413
aF0.44506094441105354
aF0.45786590267097105
aF0.4484061364914022
aF0.3412983766808026
aF0.3411695956591211
aF0.3358400168522796
aF0.33832279488545763
aF0.3386877705081727
aF0.3363890998284977
aF0.3367300348685081
aF0.34105253010663866
aF0.3381751241300713
aF0.3397253499159592
aF0.33797954664028806
aF0.34154480290593764
aF0.3381589988460971
aF0.3378093585476348
aF0.3397714316516438
aF0.33952860747090713
aF0.3396412811053957
aF0.33725449776153044
aF0.33762315204972965
aF0.3400071282910627
aF0.3351295952136085
aF0.3392034500984751
aF0.3395997665311356
aF0.33709956195931245
aF0.33980794482331084
aF0.33847917565154045
aF0.3360205962819876
aF0.33886144753497455
aF0.33836756064787804
aF0.33781352323291264
aF0.3388140050369057
aF0.338632396365969
aF0.3378203891252774
aF0.33832891067774185
aF0.33644659594206666
aF0.3383371990597732
aF0.33324790836785695
aF0.3392157385747482
aF0.33898152297843476
aF0.340863076155311
aF0.3378051260813509
aF0.33945492593428406
aF0.33849327786761324
aF0.33835208451914944
aF0.33879888034836514
aF0.3391499875655412
aF0.3378169243925563
aF0.33941564657933004
aF0.33837196983317336
aF0.3387518319893822
asba(iparams
Statistics
p52
(dp53
g8
(lp54
I13
aI21
aI22
aI24
aI30
aI18
aI34
aI39
aI46
aI44
aI60
aI69
aI54
aI59
aI88
aI69
aI73
aI76
aI84
aI72
aI80
aI74
aI78
aI77
aI85
aI72
aI75
aI72
aI72
aI84
aI71
aI71
aI78
aI72
aI84
aI93
aI90
aI69
aI68
aI85
aI85
aI93
aI69
aI73
aI87
aI77
aI79
aI78
aI77
aI84
aI66
aI78
aI78
aI79
aI68
aI79
aI81
aI81
aI92
aI60
aI90
aI83
aI69
aI76
aI80
aI84
aI75
aI68
aI70
aI75
aI74
aI77
aI77
aI78
aI73
aI97
aI72
aI84
aI86
aI71
aI73
aI76
aI84
aI79
aI74
aI74
aI77
aI96
aI96
aI82
aI89
aI65
aI78
aI83
aI82
aI82
aI78
aI91
aI83
aI79
aI63
aI89
aI65
aI86
aI78
aI67
aI71
aI84
aI77
aI76
aI64
aI90
aI68
aI83
aI83
aI82
aI91
aI77
aI80
aI72
aI94
aI75
aI77
aI76
aI86
aI82
aI68
aI86
aI78
aI80
aI67
aI73
aI71
aI71
aI67
aI77
aI71
aI102
aI76
aI72
aI71
aI83
aI80
aI82
aI72
aI71
aI77
aI85
aI83
aI75
asg10
g11
sg12
(lp55
I197
aI290
aI372
aI404
aI428
aI440
aI460
aI472
aI454
aI499
aI512
aI509
aI512
aI541
aI517
aI546
aI527
aI566
aI554
aI554
aI548
aI537
aI554
aI558
aI557
aI519
aI527
aI561
aI568
aI563
aI544
aI542
aI556
aI562
aI571
aI555
aI515
aI547
aI554
aI555
aI543
aI568
aI564
aI559
aI546
aI547
aI561
aI538
aI557
aI555
aI551
aI548
aI533
aI536
aI517
aI528
aI538
aI553
aI552
aI527
aI538
aI549
aI578
aI550
aI538
aI550
aI541
aI543
aI538
aI563
aI556
aI536
aI542
aI526
aI563
aI528
aI572
aI582
aI553
aI532
aI551
aI537
aI550
aI560
aI548
aI546
aI583
aI600
aI601
aI566
aI534
aI552
aI557
aI569
aI557
aI555
aI549
aI513
aI528
aI519
aI537
aI545
aI549
aI559
aI548
aI546
aI543
aI552
aI554
aI550
aI531
aI544
aI588
aI544
aI529
aI534
aI554
aI551
aI549
aI547
aI556
aI521
aI541
aI548
aI538
aI534
aI563
aI537
aI539
aI548
aI536
aI554
aI554
aI550
aI552
aI545
aI564
aI559
aI541
aI558
aI538
aI563
aI539
aI554
aI546
aI547
aI559
aI557
aI548
aI575
asg14
(lp56
I197
aI290
aI372
aI404
aI428
aI440
aI460
aI472
aI454
aI499
aI512
aI509
aI512
aI541
aI517
aI546
aI527
aI566
aI554
aI554
aI548
aI537
aI554
aI558
aI557
aI519
aI527
aI561
aI568
aI563
aI544
aI542
aI556
aI562
aI571
aI555
aI515
aI547
aI554
aI555
aI543
aI568
aI564
aI559
aI546
aI547
aI561
aI538
aI557
aI555
aI551
aI548
aI533
aI536
aI517
aI528
aI538
aI553
aI552
aI527
aI538
aI549
aI578
aI550
aI538
aI550
aI541
aI543
aI538
aI563
aI556
aI536
aI542
aI526
aI563
aI528
aI572
aI582
aI553
aI532
aI551
aI537
aI550
aI560
aI548
aI546
aI583
aI600
aI601
aI566
aI534
aI552
aI557
aI569
aI557
aI555
aI549
aI513
aI528
aI519
aI537
aI545
aI549
aI559
aI548
aI546
aI543
aI552
aI554
aI550
aI531
aI544
aI588
aI544
aI529
aI534
aI554
aI551
aI549
aI547
aI556
aI521
aI541
aI548
aI538
aI534
aI563
aI537
aI539
aI548
aI536
aI554
aI554
aI550
aI552
aI545
aI564
aI559
aI541
aI558
aI538
aI563
aI539
aI554
aI546
aI547
aI559
aI557
aI548
aI575
asg5
(lp57
F3.413532018661499
aF5.0201098918914795
aF6.733714818954468
aF7.968678951263428
aF8.781058073043823
aF8.829777956008911
aF9.099365949630737
aF9.579807043075562
aF9.49064302444458
aF10.377820014953613
aF10.73403000831604
aF10.744407892227173
aF11.121876955032349
aF11.550021886825562
aF11.242495059967041
aF11.529520988464355
aF12.048496961593628
aF11.83391284942627
aF12.01335096359253
aF11.62894582748413
aF11.74481201171875
aF11.906270980834961
aF11.920297145843506
aF11.952311038970947
aF11.606564044952393
aF11.31975507736206
aF11.92680287361145
aF11.965198040008545
aF11.655571937561035
aF11.695977926254272
aF11.679548025131226
aF11.568933963775635
aF11.858301877975464
aF11.986032009124756
aF12.36187481880188
aF12.37254810333252
aF11.51567792892456
aF11.331683158874512
aF11.775537014007568
aF12.012974977493286
aF12.321522951126099
aF12.456857919692993
aF12.180709838867188
aF12.020065784454346
aF12.412010908126831
aF12.38854193687439
aF12.119476079940796
aF11.397438049316406
aF12.358150959014893
aF11.9981849193573
aF11.836498975753784
aF11.880887985229492
aF11.804385900497437
aF11.51286506652832
aF11.347243785858154
aF11.440800905227661
aF11.786275863647461
aF12.313544034957886
aF12.158913135528564
aF11.557095050811768
aF11.818094968795776
aF12.009119033813477
aF12.34869909286499
aF12.163117170333862
aF12.15488576889038
aF11.805615901947021
aF11.530431032180786
aF11.567710876464844
aF11.708904027938843
aF12.42875599861145
aF12.217727899551392
aF11.83083701133728
aF12.01566195487976
aF11.339093923568726
aF11.954251050949097
aF12.0140700340271
aF12.148339033126831
aF12.653308868408203
aF12.69460391998291
aF11.639631986618042
aF11.688706874847412
aF11.538039922714233
aF11.99078106880188
aF11.769706964492798
aF11.981033086776733
aF12.239928960800171
aF12.998202800750732
aF13.433945894241333
aF13.148391008377075
aF12.179955959320068
aF11.756716012954712
aF11.592688798904419
aF11.811620950698853
aF12.570362091064453
aF12.28942084312439
aF11.970616817474365
aF12.00206208229065
aF11.576200008392334
aF11.586301803588867
aF11.380211114883423
aF11.459044933319092
aF11.603358030319214
aF11.5403470993042
aF11.985295057296753
aF11.909310102462769
aF11.633970022201538
aF11.86390495300293
aF11.932960987091064
aF12.007418155670166
aF11.740849018096924
aF11.700501203536987
aF11.868876934051514
aF12.719060897827148
aF11.974200010299683
aF11.62692403793335
aF11.815529823303223
aF12.132614850997925
aF11.511598110198975
aF11.688575983047485
aF11.87637996673584
aF12.443911790847778
aF11.383410930633545
aF11.924240827560425
aF11.346305131912231
aF11.312596082687378
aF11.314872026443481
aF12.021067142486572
aF11.93336796760559
aF12.132721900939941
aF11.80797791481018
aF11.590388059616089
aF11.82200002670288
aF11.812891960144043
aF12.201920986175537
aF11.771908044815063
aF12.015232801437378
aF12.190202951431274
aF12.42551302909851
aF12.059101104736328
aF11.850261926651001
aF11.645023107528687
aF11.824962854385376
aF12.008458852767944
aF12.126713037490845
aF11.907989025115967
aF12.091382026672363
aF12.010738849639893
aF12.71668004989624
aF12.167396068572998
aF12.134837865829468
asg17
g1
sg18
(lp58
I225
aI333
aI425
aI488
aI525
aI525
aI547
aI569
aI566
aI612
aI639
aI634
aI654
aI665
aI668
aI687
aI685
aI705
aI713
aI693
aI692
aI689
aI707
aI723
aI698
aI664
aI694
aI704
aI694
aI697
aI690
aI697
aI693
aI706
aI726
aI717
aI678
aI677
aI707
aI696
aI718
aI735
aI716
aI708
aI712
aI706
aI701
aI682
aI714
aI701
aI684
aI683
aI677
aI670
aI665
aI673
aI695
aI719
aI715
aI672
aI695
aI717
aI720
aI720
aI710
aI697
aI687
aI684
aI679
aI697
aI719
aI689
aI683
aI659
aI719
aI694
aI725
aI741
aI713
aI684
aI697
aI682
aI707
aI703
aI711
aI722
aI771
aI787
aI763
aI715
aI701
aI697
aI707
aI734
aI718
aI695
aI687
aI672
aI672
aI659
aI673
aI701
aI688
aI708
aI705
aI700
aI706
aI715
aI700
aI696
aI697
aI711
aI726
aI690
aI690
aI698
aI699
aI693
aI699
aI702
aI713
aI667
aI660
aI673
aI668
aI670
aI704
aI695
aI700
aI699
aI684
aI701
aI702
aI710
aI698
aI715
aI719
aI727
aI684
aI689
aI688
aI701
aI693
aI703
aI703
aI712
aI712
aI726
aI717
aI713
asg20
(lp59
I229
aI335
aI428
aI490
aI529
aI527
aI548
aI571
aI571
aI614
aI643
aI637
aI657
aI669
aI674
aI691
aI689
aI713
aI718
aI702
aI701
aI696
aI714
aI729
aI707
aI669
aI699
aI709
aI702
aI705
aI700
aI703
aI700
aI713
aI732
aI723
aI686
aI682
aI711
aI704
aI726
aI743
aI724
aI714
aI718
aI709
aI709
aI688
aI719
aI708
aI690
aI687
aI681
aI677
aI668
aI680
aI700
aI725
aI722
aI680
aI699
aI720
aI721
aI727
aI719
aI706
aI696
aI690
aI685
aI703
aI723
aI694
aI690
aI665
aI723
aI701
aI732
aI748
aI720
aI687
aI703
aI687
aI711
aI707
aI718
aI728
aI778
aI797
aI771
aI724
aI707
aI704
aI714
aI740
aI725
aI700
aI691
aI677
aI679
aI665
aI680
aI708
aI693
aI714
aI712
aI703
aI711
aI725
aI706
aI700
aI703
aI718
aI733
aI700
aI699
aI705
aI702
aI697
aI703
aI704
aI719
aI675
aI666
aI679
aI677
aI677
aI709
aI703
aI704
aI704
aI690
aI707
aI709
aI716
aI703
aI719
aI723
aI731
aI689
aI694
aI694
aI705
aI699
aI708
aI709
aI716
aI719
aI734
aI722
aI720
asg22
(lp60
sg24
(lp61
I58
aI56
aI66
aI75
aI96
aI98
aI90
aI97
aI98
aI92
aI88
aI86
aI107
aI109
aI82
aI101
aI91
aI88
aI100
aI103
aI93
aI101
aI90
aI109
aI110
aI104
aI100
aI98
aI94
aI92
aI104
aI104
aI94
aI90
aI95
aI99
aI97
aI100
aI104
aI99
aI104
aI91
aI96
aI95
aI90
aI114
aI110
aI92
aI112
aI96
aI110
aI90
aI99
aI105
aI110
aI81
aI95
aI99
aI105
aI105
aI91
aI97
aI108
aI98
aI107
aI99
aI103
aI103
aI87
aI86
aI96
aI106
aI105
aI90
aI100
aI86
aI94
aI100
aI97
aI96
aI106
aI107
aI95
aI95
aI87
aI97
aI81
aI97
aI91
aI105
aI102
aI96
aI95
aI96
aI110
aI104
aI109
aI106
aI93
aI81
aI100
aI97
aI108
aI95
aI109
aI110
aI102
aI90
aI104
aI88
aI93
aI90
aI117
aI96
aI89
aI100
aI91
aI100
aI88
aI116
aI97
aI100
aI118
aI105
aI90
aI101
aI102
aI86
aI104
aI93
aI104
aI94
aI99
aI91
aI99
aI102
aI103
aI82
aI96
aI114
aI94
aI89
aI107
aI98
aI97
aI94
aI103
aI96
aI94
aI110
asg26
g27
sg28
(lp62
F0.40236580453852433
aF0.4171524824464526
aF0.4280206285770516
aF0.44329425558172636
aF0.4568726692577563
aF0.4432626709449454
aF0.45624868818100134
aF0.456409665917743
aF0.47346526017735396
aF0.4576990324562109
aF0.4609236834846669
aF0.4597453222265996
aF0.455947622934121
aF0.45929380985017465
aF0.4607734568559728
aF0.46023390325764835
aF0.47372092536832533
aF0.4583240310957953
aF0.45809480606368286
aF0.46554113759242405
aF0.459600774585758
aF0.4453243275793276
aF0.4427150308577965
aF0.4416883249195932
aF0.43407532996479636
aF0.43596485723706646
aF0.4398158133245993
aF0.4271460264367716
aF0.4390804964531551
aF0.42335119379545094
aF0.4186441003865883
aF0.42426605769982534
aF0.42035079689296
aF0.4300034256979138
aF0.4248211641585609
aF0.4353359959672777
aF0.4327006824189031
aF0.42603318222395414
aF0.431492050853019
aF0.4322491834601043
aF0.42660818715911464
aF0.42207419544904196
aF0.42768576723284124
aF0.43292969349457805
aF0.43387464874214254
aF0.43601108692505286
aF0.4281229381723898
aF0.4250999955074409
aF0.4270929231953265
aF0.42721830540342404
aF0.42704424519358614
aF0.43238322206860985
aF0.43149433479939936
aF0.4287795569065131
aF0.4338005353036305
aF0.44529408209249954
aF0.4331592314788407
aF0.4338434636668087
aF0.42792090324995785
aF0.43325281048932374
aF0.4334104808014266
aF0.4311656440751735
aF0.4252949858168707
aF0.43127129341329723
aF0.4342106630995763
aF0.43025882278089933
aF0.43266015474487574
aF0.4301348369989574
aF0.43347329313207295
aF0.4262280053801424
aF0.4223080844559097
aF0.4340837900086264
aF0.429479951344374
aF0.4424480725252136
aF0.42598791277703196
aF0.42703188439752016
aF0.4112770060845994
aF0.41369006906600914
aF0.41735273207726425
aF0.4260259614700255
aF0.42121065504002553
aF0.4269441036388682
aF0.4242926225963522
aF0.4242478175579337
aF0.43027402872412857
aF0.42599450211281653
aF0.4228059662761933
aF0.4207245629455244
aF0.4164446184144183
aF0.4248177181005767
aF0.4295637026259105
aF0.42975484997817215
aF0.43537755595469074
aF0.4283758546128316
aF0.44229929300443366
aF0.43611079585109364
aF0.4280308097876603
aF0.4317889300200197
aF0.42460347772291795
aF0.43105591118334907
aF0.33986491897964505
aF0.33665629326404684
aF0.3388441217318487
aF0.3361328684019348
aF0.33649169833093684
aF0.3380175906422259
aF0.3380207475077002
aF0.3351535453144211
aF0.3368980875868755
aF0.3389947446237318
aF0.33833533959714973
aF0.3385778773139268
aF0.33849319382720694
aF0.33915137067303314
aF0.33921546294803284
aF0.3401628267418485
aF0.34047583630514916
aF0.33758397165931814
aF0.33927411644282857
aF0.3373683106092653
aF0.33746117501162914
aF0.3387575600244716
aF0.33549710584516124
aF0.3416476220799491
aF0.33957821767287927
aF0.3377305174334392
aF0.3376106167081381
aF0.3384512636532784
aF0.33829124390262916
aF0.3400782281547012
aF0.33887802659868804
aF0.3391356224716504
aF0.33883150509159204
aF0.3404827296324307
aF0.3368038342497666
aF0.33996870526059897
aF0.3349035999306822
aF0.336495584329174
aF0.3403295657118555
aF0.3393806792115795
aF0.33865241071343666
aF0.33867452275601884
aF0.3398404947398923
aF0.3384053911993031
aF0.3365187046444525
aF0.3403606022172518
aF0.33854751024802715
aF0.337188568980979
aF0.33652208965666774
aF0.33985157831307605
asba(iparams
Statistics
p63
(dp64
g8
(lp65
I10
aI14
aI15
aI23
aI23
aI28
aI41
aI46
aI66
aI68
aI65
aI78
aI72
aI77
aI98
aI82
aI121
aI85
aI104
aI93
aI100
aI115
aI104
aI81
aI118
aI116
aI96
aI97
aI113
aI99
aI94
aI111
aI98
aI107
aI103
aI113
aI112
aI92
aI101
aI87
aI96
aI107
aI104
aI110
aI122
aI106
aI107
aI95
aI113
aI114
aI85
aI86
aI93
aI90
aI95
aI89
aI78
aI97
aI81
aI103
aI110
aI105
aI112
aI103
aI99
aI105
aI109
aI93
aI101
aI108
aI95
aI94
aI105
aI94
aI98
aI104
aI103
aI99
aI132
aI114
aI100
aI89
aI92
aI97
aI100
aI89
aI106
aI91
aI88
aI91
aI90
aI103
aI92
aI131
aI109
aI93
aI91
aI111
aI93
aI104
aI118
aI111
aI105
aI102
aI106
aI94
aI112
aI98
aI85
aI104
aI111
aI87
aI89
aI118
aI108
aI113
aI98
aI105
aI108
aI101
aI112
aI92
aI95
aI101
aI99
aI106
aI99
aI106
aI94
aI94
aI119
aI99
aI93
aI93
aI110
aI99
aI106
aI103
aI125
aI93
aI106
aI101
aI84
aI101
aI85
aI97
aI110
aI110
aI105
aI92
asg10
g11
sg12
(lp66
I233
aI336
aI399
aI471
aI516
aI524
aI558
aI570
aI578
aI604
aI594
aI600
aI630
aI625
aI663
aI672
aI692
aI649
aI677
aI662
aI680
aI681
aI685
aI676
aI663
aI671
aI658
aI688
aI671
aI661
aI651
aI704
aI654
aI678
aI672
aI655
aI667
aI655
aI673
aI662
aI691
aI696
aI690
aI679
aI677
aI653
aI652
aI674
aI660
aI674
aI627
aI655
aI622
aI647
aI651
aI661
aI690
aI652
aI658
aI654
aI673
aI666
aI674
aI645
aI667
aI694
aI651
aI661
aI680
aI685
aI655
aI668
aI659
aI661
aI671
aI682
aI651
aI672
aI676
aI680
aI641
aI645
aI644
aI655
aI643
aI661
aI646
aI661
aI658
aI662
aI675
aI666
aI683
aI688
aI666
aI677
aI664
aI660
aI674
aI670
aI659
aI666
aI660
aI657
aI677
aI667
aI668
aI670
aI680
aI686
aI657
aI648
aI669
aI671
aI672
aI651
aI643
aI669
aI669
aI677
aI649
aI663
aI668
aI676
aI655
aI671
aI682
aI678
aI667
aI698
aI680
aI667
aI659
aI637
aI664
aI664
aI655
aI643
aI680
aI651
aI662
aI669
aI668
aI673
aI640
aI663
aI681
aI668
aI658
aI673
asg14
(lp67
I233
aI336
aI399
aI471
aI516
aI524
aI558
aI570
aI578
aI604
aI594
aI600
aI630
aI625
aI663
aI672
aI692
aI649
aI677
aI662
aI680
aI681
aI685
aI676
aI663
aI671
aI658
aI688
aI671
aI661
aI651
aI704
aI654
aI678
aI672
aI655
aI667
aI655
aI673
aI662
aI691
aI696
aI690
aI679
aI677
aI653
aI652
aI674
aI660
aI674
aI627
aI655
aI622
aI647
aI651
aI661
aI690
aI652
aI658
aI654
aI673
aI666
aI674
aI645
aI667
aI694
aI651
aI661
aI680
aI685
aI655
aI668
aI659
aI661
aI671
aI682
aI651
aI672
aI676
aI680
aI641
aI645
aI644
aI655
aI643
aI661
aI646
aI661
aI658
aI662
aI675
aI666
aI683
aI688
aI666
aI677
aI664
aI660
aI674
aI670
aI659
aI666
aI660
aI657
aI677
aI667
aI668
aI670
aI680
aI686
aI657
aI648
aI669
aI671
aI672
aI651
aI643
aI669
aI669
aI677
aI649
aI663
aI668
aI676
aI655
aI671
aI682
aI678
aI667
aI698
aI680
aI667
aI659
aI637
aI664
aI664
aI655
aI643
aI680
aI651
aI662
aI669
aI668
aI673
aI640
aI663
aI681
aI668
aI658
aI673
asg5
(lp68
F3.8843629360198975
aF5.712276935577393
aF7.56786322593689
aF9.535598993301392
aF10.751363039016724
aF11.106688022613525
aF12.23253607749939
aF12.75107192993164
aF12.490283012390137
aF12.919306993484497
aF12.774998903274536
aF13.284332990646362
aF14.097290992736816
aF14.075510025024414
aF14.636451005935669
aF15.195116996765137
aF15.591468811035156
aF14.878868818283081
aF15.1976158618927
aF14.696530103683472
aF15.010917901992798
aF15.447442054748535
aF15.744245767593384
aF14.769640922546387
aF15.462796926498413
aF15.111067056655884
aF14.641266822814941
aF15.52538800239563
aF15.174859046936035
aF14.80635118484497
aF14.9810049533844
aF15.471101999282837
aF14.875527143478394
aF15.32641315460205
aF15.306060075759888
aF15.235285997390747
aF15.318140983581543
aF15.213655948638916
aF14.874953031539917
aF15.089033842086792
aF15.203881978988647
aF15.952641010284424
aF15.898411989212036
aF15.857964038848877
aF15.251458883285522
aF15.144096851348877
aF14.408239126205444
aF14.749365091323853
aF15.118892908096313
aF14.798665046691895
aF14.195214986801147
aF14.697186946868896
aF14.634862184524536
aF14.77270793914795
aF14.963568925857544
aF14.97325611114502
aF15.23214602470398
aF14.837644100189209
aF15.681319952011108
aF15.370239019393921
aF15.697786092758179
aF15.18578314781189
aF15.257252931594849
aF15.03324007987976
aF15.378996849060059
aF15.226855993270874
aF14.90995192527771
aF14.891340970993042
aF15.130996942520142
aF14.950735092163086
aF14.836280107498169
aF14.987206935882568
aF15.308759927749634
aF15.464320182800293
aF15.622897863388062
aF15.479287147521973
aF15.080236196517944
aF15.572895050048828
aF15.835258960723877
aF15.13169002532959
aF14.526556968688965
aF14.90885305404663
aF14.744558095932007
aF14.711965799331665
aF15.003686904907227
aF14.82756495475769
aF14.998779058456421
aF15.048604965209961
aF15.253908157348633
aF14.866612195968628
aF15.34101390838623
aF15.564352989196777
aF15.919153928756714
aF16.35935401916504
aF15.965533018112183
aF15.764000177383423
aF15.827317953109741
aF15.377727031707764
aF15.684753179550171
aF15.460402011871338
aF15.762982845306396
aF15.379576921463013
aF15.50793194770813
aF15.750099182128906
aF15.696655035018921
aF15.920644998550415
aF16.46628499031067
aF16.502574920654297
aF16.129809856414795
aF16.254904985427856
aF15.566306114196777
aF15.15819501876831
aF15.480707883834839
aF15.886264085769653
aF16.0505530834198
aF15.475422143936157
aF15.172021865844727
aF14.901806116104126
aF15.225817918777466
aF15.454591035842896
aF15.174562931060791
aF14.914245843887329
aF14.927755117416382
aF15.118948936462402
aF15.408029079437256
aF15.525722026824951
aF15.668833017349243
aF15.51411509513855
aF15.713518857955933
aF16.21298885345459
aF15.77685284614563
aF15.335345029830933
aF14.654364109039307
aF14.497874021530151
aF15.309502840042114
aF15.219985008239746
aF15.062798023223877
aF15.306013822555542
aF15.52637791633606
aF14.9286048412323
aF15.192149877548218
aF15.250776052474976
aF15.33432412147522
aF15.377341032028198
aF14.720054149627686
aF15.267930030822754
aF15.465002059936523
aF15.352895975112915
aF15.019197940826416
aF15.569048881530762
asg17
g1
sg18
(lp69
I260
aI384
aI488
aI597
aI649
aI682
aI742
aI764
aI768
aI800
aI776
aI792
aI828
aI844
aI885
aI922
aI927
aI893
aI904
aI890
aI917
aI922
aI902
aI900
aI922
aI917
aI897
aI926
aI917
aI894
aI899
aI922
aI897
aI923
aI924
aI909
aI913
aI912
aI892
aI911
aI927
aI951
aI947
aI951
aI914
aI895
aI870
aI894
aI898
aI877
aI848
aI868
aI862
aI882
aI898
aI901
aI916
aI886
aI909
aI901
aI901
aI885
aI890
aI877
aI901
aI908
aI887
aI883
aI909
aI897
aI889
aI886
aI909
aI909
aI917
aI905
aI876
aI901
aI925
aI895
aI867
aI870
aI862
aI872
aI882
aI871
aI879
aI885
aI890
aI870
aI906
aI913
aI951
aI958
aI928
aI933
aI909
aI904
aI910
aI921
aI921
aI911
aI902
aI911
aI923
aI919
aI942
aI921
aI917
aI928
aI887
aI876
aI899
aI919
aI921
aI879
aI869
aI904
aI902
aI924
aI896
aI885
aI900
aI916
aI915
aI918
aI926
aI935
aI937
aI952
aI945
aI906
aI874
aI867
aI905
aI877
aI886
aI906
aI919
aI880
aI890
aI890
aI890
aI882
aI882
aI903
aI912
aI917
aI901
aI901
asg20
(lp70
I261
aI384
aI489
aI598
aI650
aI683
aI744
aI765
aI768
aI801
aI782
aI797
aI834
aI846
aI890
aI927
aI935
aI903
aI915
aI898
aI925
aI930
aI911
aI910
aI933
aI925
aI908
aI938
aI926
aI898
aI907
aI926
aI908
aI933
aI933
aI914
aI918
aI917
aI898
aI923
aI942
aI961
aI954
aI959
aI925
aI905
aI880
aI900
aI907
aI883
aI857
aI875
aI871
aI891
aI907
aI907
aI924
aI894
aI918
aI908
aI909
aI895
aI901
aI888
aI910
aI917
aI895
aI888
aI917
aI903
aI898
aI894
aI917
aI920
aI927
aI914
aI883
aI913
aI936
aI902
aI879
aI879
aI871
aI881
aI892
aI879
aI888
aI894
aI896
aI879
aI916
aI920
aI957
aI962
aI935
aI939
aI918
aI914
aI923
aI927
aI931
aI921
aI911
aI920
aI930
aI925
aI954
aI928
aI922
aI935
aI896
aI882
aI907
aI926
aI926
aI888
aI877
aI913
aI910
aI934
aI905
aI895
aI908
aI922
aI922
aI928
aI936
aI946
aI946
aI961
aI955
aI913
aI883
aI882
aI914
aI885
aI895
aI915
aI927
aI892
aI898
aI899
aI896
aI892
aI891
aI911
aI923
aI927
aI913
aI912
asg22
(lp71
sg24
(lp72
I61
aI79
aI82
aI100
aI102
aI113
aI110
aI104
aI110
aI129
aI119
aI110
aI108
aI112
aI110
aI125
aI121
aI127
aI105
aI126
aI118
aI117
aI118
aI125
aI111
aI112
aI122
aI116
aI123
aI136
aI109
aI113
aI113
aI118
aI107
aI126
aI108
aI116
aI103
aI116
aI107
aI123
aI131
aI139
aI127
aI126
aI106
aI139
aI131
aI116
aI125
aI140
aI124
aI100
aI123
aI116
aI110
aI126
aI139
aI121
aI116
aI121
aI114
aI119
aI129
aI124
aI121
aI123
aI117
aI128
aI125
aI112
aI107
aI119
aI128
aI134
aI118
aI114
aI110
aI121
aI121
aI132
aI113
aI110
aI127
aI140
aI112
aI145
aI111
aI116
aI105
aI114
aI135
aI119
aI120
aI114
aI121
aI121
aI111
aI126
aI117
aI128
aI114
aI116
aI124
aI115
aI113
aI111
aI132
aI119
aI105
aI124
aI115
aI112
aI139
aI119
aI118
aI109
aI112
aI140
aI121
aI112
aI117
aI108
aI133
aI104
aI125
aI113
aI112
aI125
aI122
aI124
aI137
aI129
aI117
aI117
aI115
aI111
aI109
aI127
aI122
aI121
aI122
aI112
aI120
aI127
aI115
aI119
aI116
aI124
asg26
g27
sg28
(lp73
F0.39200949927362094
aF0.4044080698381491
aF0.42358299140955813
aF0.4257479450555516
aF0.4264177820482368
aF0.4331264809738439
aF0.4340390724378055
aF0.43779161639332226
aF0.442634935607468
aF0.43367881790515217
aF0.43052741827643554
aF0.4351366302394606
aF0.4363758541594221
aF0.4461702978742699
aF0.43094351522933105
aF0.4389180933247442
aF0.44026442942912103
aF0.44273527814981173
aF0.43973851665959723
aF0.4328425761845837
aF0.4362226152059527
aF0.4244455333024017
aF0.4204526830878987
aF0.4187373202566628
aF0.4168445731735516
aF0.4176832784022497
aF0.4065763661693011
aF0.40609976827432687
aF0.40902155781209687
aF0.4120567764893245
aF0.4221314376903363
aF0.40649294082841175
aF0.4119911617774232
aF0.4098501102540107
aF0.41652239872048713
aF0.41476283235680883
aF0.4144218407439677
aF0.41970757388883306
aF0.40270320999493503
aF0.39942851783675065
aF0.4030538040655434
aF0.4107768478047405
aF0.40630464414937995
aF0.413569972654607
aF0.4098203261694257
aF0.41223432483724265
aF0.41382432367226074
aF0.41041714791955497
aF0.40586821569794207
aF0.40117996966154834
aF0.408015716417431
aF0.4054379093068355
aF0.4079593722273191
aF0.41119365071388475
aF0.420407866386361
aF0.4164216618143933
aF0.414569560572519
aF0.4237870817644573
aF0.4166276607350706
aF0.41044324343801314
aF0.41031235087813867
aF0.40523929778579554
aF0.40761372796050876
aF0.39783275300988435
aF0.4095638825338691
aF0.4132859609921429
aF0.4186188505385693
aF0.4141877288276056
aF0.4196607250513504
aF0.40691808286735986
aF0.40770427997344616
aF0.4161747537778946
aF0.40775197678727354
aF0.4080112337158093
aF0.4020305922698046
aF0.40749513730970693
aF0.411751635565793
aF0.40452103604503276
aF0.3946397089532419
aF0.40091507470922344
aF0.41164709554115997
aF0.40977459463804383
aF0.41355404749782576
aF0.403479614856337
aF0.4076642453678665
aF0.40799790336159303
aF0.4053010164201777
aF0.3994207725916015
aF0.4099994924018634
aF0.42046904674452407
aF0.4151580544800323
aF0.4110407013292744
aF0.41197539898030305
aF0.4135430121906
aF0.41077522347371503
aF0.41188790095741257
aF0.41269773258849796
aF0.4163617493519272
aF0.40850242099456924
aF0.4094295656947448
aF0.3377018596432195
aF0.33962439581833553
aF0.3339310417356348
aF0.33738135111464496
aF0.3382557216009695
aF0.3374072925168461
aF0.3398700913765668
aF0.33578393277402546
aF0.3380166298713655
aF0.33578628638004165
aF0.3388707659701799
aF0.3371075982231429
aF0.3366643357882097
aF0.33955708111802385
aF0.3370562916701864
aF0.3342066930724632
aF0.3358062930907538
aF0.33531510967601175
aF0.3392742097696681
aF0.3375706300656582
aF0.33700398116920244
aF0.3379167566450209
aF0.3399588022216647
aF0.3385938124244713
aF0.33517908817839226
aF0.33906731236414234
aF0.33590007064372324
aF0.3370720242087966
aF0.33792641929664874
aF0.3383520547219939
aF0.3353114214700485
aF0.3361428645940048
aF0.33534595221485475
aF0.3346121877274688
aF0.3371784622480577
aF0.3364799577760611
aF0.33618403161271654
aF0.333707094347417
aF0.3373712985483436
aF0.3381714425269648
aF0.3381076134262614
aF0.33802600916984016
aF0.33921316727528716
aF0.3356909175108407
aF0.3349552931296076
aF0.3375732575906051
aF0.33592225613440285
aF0.33666316533580976
aF0.33758687844356294
aF0.33798400442060117
asba(iparams
Statistics
p74
(dp75
g8
(lp76
I13
aI15
aI17
aI18
aI29
aI45
aI47
aI54
aI67
aI71
aI75
aI102
aI89
aI110
aI110
aI110
aI126
aI154
aI125
aI123
aI135
aI114
aI125
aI124
aI112
aI122
aI118
aI128
aI121
aI124
aI112
aI117
aI129
aI122
aI119
aI129
aI119
aI129
aI151
aI148
aI114
aI128
aI111
aI117
aI118
aI113
aI117
aI137
aI135
aI118
aI137
aI140
aI117
aI121
aI107
aI141
aI127
aI130
aI126
aI116
aI109
aI120
aI133
aI140
aI136
aI125
aI144
aI137
aI143
aI127
aI117
aI124
aI122
aI116
aI112
aI123
aI123
aI123
aI140
aI138
aI141
aI136
aI111
aI127
aI122
aI114
aI122
aI140
aI124
aI119
aI126
aI143
aI126
aI125
aI112
aI128
aI120
aI117
aI130
aI122
aI123
aI120
aI124
aI142
aI130
aI124
aI111
aI140
aI113
aI133
aI108
aI144
aI112
aI128
aI138
aI128
aI129
aI125
aI115
aI146
aI144
aI118
aI136
aI133
aI136
aI127
aI127
aI112
aI129
aI132
aI130
aI128
aI133
aI117
aI112
aI120
aI119
aI110
aI128
aI136
aI136
aI123
aI131
aI136
aI118
aI116
aI119
aI128
aI124
aI140
asg10
g11
sg12
(lp77
I266
aI387
aI455
aI558
aI586
aI635
aI628
aI660
aI711
aI700
aI704
aI742
aI744
aI723
aI758
aI777
aI780
aI798
aI742
aI763
aI771
aI792
aI787
aI751
aI783
aI762
aI781
aI752
aI775
aI783
aI787
aI771
aI767
aI788
aI766
aI752
aI772
aI787
aI781
aI794
aI790
aI770
aI764
aI765
aI774
aI758
aI777
aI816
aI792
aI782
aI787
aI739
aI789
aI745
aI761
aI793
aI783
aI771
aI752
aI775
aI788
aI769
aI789
aI800
aI805
aI780
aI769
aI794
aI786
aI752
aI776
aI778
aI781
aI766
aI757
aI799
aI782
aI787
aI800
aI814
aI773
aI770
aI759
aI760
aI776
aI765
aI793
aI768
aI751
aI760
aI785
aI777
aI757
aI755
aI770
aI798
aI752
aI754
aI752
aI752
aI774
aI795
aI804
aI787
aI778
aI783
aI755
aI771
aI786
aI767
aI765
aI761
aI773
aI782
aI786
aI807
aI787
aI784
aI798
aI781
aI764
aI758
aI775
aI778
aI760
aI745
aI792
aI734
aI780
aI773
aI763
aI780
aI748
aI774
aI771
aI815
aI803
aI780
aI807
aI780
aI781
aI735
aI763
aI781
aI777
aI763
aI754
aI779
aI783
aI804
asg14
(lp78
I266
aI387
aI455
aI558
aI586
aI635
aI628
aI660
aI711
aI700
aI704
aI742
aI744
aI723
aI758
aI777
aI780
aI798
aI742
aI763
aI771
aI792
aI787
aI751
aI783
aI762
aI781
aI752
aI775
aI783
aI787
aI771
aI767
aI788
aI766
aI752
aI772
aI787
aI781
aI794
aI790
aI770
aI764
aI765
aI774
aI758
aI777
aI816
aI792
aI782
aI787
aI739
aI789
aI745
aI761
aI793
aI783
aI771
aI752
aI775
aI788
aI769
aI789
aI800
aI805
aI780
aI769
aI794
aI786
aI752
aI776
aI778
aI781
aI766
aI757
aI799
aI782
aI787
aI800
aI814
aI773
aI770
aI759
aI760
aI776
aI765
aI793
aI768
aI751
aI760
aI785
aI777
aI757
aI755
aI770
aI798
aI752
aI754
aI752
aI752
aI774
aI795
aI804
aI787
aI778
aI783
aI755
aI771
aI786
aI767
aI765
aI761
aI773
aI782
aI786
aI807
aI787
aI784
aI798
aI781
aI764
aI758
aI775
aI778
aI760
aI745
aI792
aI734
aI780
aI773
aI763
aI780
aI748
aI774
aI771
aI815
aI803
aI780
aI807
aI780
aI781
aI735
aI763
aI781
aI777
aI763
aI754
aI779
aI783
aI804
asg5
(lp79
F4.203700065612793
aF6.747133016586304
aF8.759600162506104
aF10.932768821716309
aF12.359083890914917
aF13.981504917144775
aF14.543529987335205
aF15.321522951126099
aF15.721131086349487
aF15.677029132843018
aF16.22277808189392
aF17.132766008377075
aF17.030355215072632
aF17.316503047943115
aF18.166818141937256
aF18.276540994644165
aF18.533654928207397
aF18.339987993240356
aF17.717314958572388
aF17.87108302116394
aF18.295368909835815
aF18.36514711380005
aF18.148601055145264
aF18.414238214492798
aF18.22742795944214
aF18.12274193763733
aF18.66416907310486
aF18.300750970840454
aF18.564746856689453
aF18.254145860671997
aF18.427754878997803
aF18.885111093521118
aF19.035740852355957
aF19.25511622428894
aF18.448182821273804
aF18.355844020843506
aF18.95330500602722
aF19.00919198989868
aF18.727054119110107
aF18.807682037353516
aF18.598936080932617
aF18.44722604751587
aF18.803482055664062
aF17.947498083114624
aF17.731091022491455
aF17.882764101028442
aF18.92009997367859
aF19.380420923233032
aF18.217360973358154
aF18.75848913192749
aF18.769155025482178
aF18.2205171585083
aF18.611993074417114
aF18.318124055862427
aF18.481794118881226
aF18.629823923110962
aF18.10573697090149
aF18.263198137283325
aF17.883689880371094
aF18.28874397277832
aF18.628913164138794
aF18.546998023986816
aF19.275525093078613
aF19.350561141967773
aF19.313463926315308
aF18.8349609375
aF18.609030961990356
aF18.692169904708862
aF18.87107491493225
aF18.41169309616089
aF18.67920994758606
aF18.458125829696655
aF18.269700050354004
aF18.350491046905518
aF18.20058012008667
aF18.65919303894043
aF19.056934118270874
aF19.48830008506775
aF19.42432999610901
aF19.02606511116028
aF18.44921088218689
aF18.31867814064026
aF17.859913110733032
aF17.985538005828857
aF18.708161115646362
aF18.412235021591187
aF18.726948976516724
aF18.34246301651001
aF17.828073024749756
aF18.27611017227173
aF18.590375185012817
aF18.56799817085266
aF18.428596019744873
aF18.43899893760681
aF18.152456045150757
aF18.901570081710815
aF18.29777717590332
aF17.935977935791016
aF17.75696587562561
aF17.944000005722046
aF18.602221965789795
aF18.835283994674683
aF18.932231903076172
aF19.49496603012085
aF18.861273050308228
aF18.484365940093994
aF18.33240294456482
aF18.320937156677246
aF18.393330097198486
aF18.439505100250244
aF18.52466917037964
aF18.962486028671265
aF19.081518173217773
aF19.096717834472656
aF19.95027494430542
aF19.254736185073853
aF19.253650903701782
aF18.73569893836975
aF19.077826976776123
aF19.41203498840332
aF18.595314025878906
aF19.090101957321167
aF18.751167058944702
aF18.635772943496704
aF18.873906135559082
aF18.36913013458252
aF18.102941036224365
aF17.891679048538208
aF19.000461101531982
aF18.35864019393921
aF18.314419984817505
aF18.49911594390869
aF18.186750888824463
aF18.695457935333252
aF18.913543939590454
aF19.0064480304718
aF18.939795970916748
aF18.839921951293945
aF19.339550018310547
aF18.880954027175903
aF18.11522102355957
aF17.753705978393555
aF18.66409993171692
aF18.52667808532715
aF18.140101194381714
aF18.804625034332275
aF18.627874851226807
aF18.914271116256714
aF18.424702882766724
aF18.571600914001465
asg17
g1
sg18
(lp80
I297
aI462
aI599
aI722
aI817
aI892
aI895
aI938
aI977
aI984
aI1017
aI1063
aI1072
aI1081
aI1102
aI1137
aI1143
aI1143
aI1094
aI1120
aI1126
aI1138
aI1135
aI1138
aI1118
aI1128
aI1127
aI1103
aI1133
aI1121
aI1112
aI1121
aI1149
aI1120
aI1123
aI1121
aI1120
aI1156
aI1154
aI1140
aI1136
aI1121
aI1114
aI1075
aI1086
aI1095
aI1151
aI1182
aI1138
aI1133
aI1149
aI1128
aI1126
aI1111
aI1123
aI1140
aI1119
aI1129
aI1089
aI1113
aI1135
aI1135
aI1172
aI1182
aI1170
aI1157
aI1154
aI1153
aI1167
aI1134
aI1145
aI1130
aI1132
aI1129
aI1135
aI1176
aI1188
aI1186
aI1182
aI1175
aI1141
aI1118
aI1117
aI1097
aI1111
aI1112
aI1117
aI1111
aI1074
aI1085
aI1100
aI1108
aI1105
aI1099
aI1115
aI1143
aI1092
aI1089
aI1092
aI1103
aI1127
aI1128
aI1166
aI1184
aI1138
aI1127
aI1144
aI1140
aI1128
aI1140
aI1136
aI1156
aI1161
aI1155
aI1193
aI1193
aI1175
aI1162
aI1172
aI1149
aI1125
aI1122
aI1131
aI1134
aI1121
aI1102
aI1107
aI1080
aI1118
aI1121
aI1105
aI1136
aI1123
aI1142
aI1157
aI1176
aI1167
aI1145
aI1155
aI1137
aI1117
aI1099
aI1143
aI1135
aI1122
aI1129
aI1121
aI1164
aI1132
aI1154
asg20
(lp81
I299
aI462
aI600
aI723
aI819
aI893
aI898
aI942
aI981
aI990
aI1025
aI1074
aI1087
aI1089
aI1106
aI1146
aI1151
aI1153
aI1107
aI1133
aI1135
aI1147
aI1146
aI1146
aI1124
aI1137
aI1135
aI1111
aI1141
aI1130
aI1123
aI1134
aI1162
aI1132
aI1138
aI1133
aI1129
aI1171
aI1168
aI1152
aI1145
aI1134
aI1125
aI1087
aI1102
aI1113
aI1166
aI1193
aI1150
aI1145
aI1160
aI1141
aI1135
aI1122
aI1132
aI1155
aI1134
aI1138
aI1101
aI1123
aI1145
aI1145
aI1185
aI1192
aI1183
aI1170
aI1167
aI1171
aI1179
aI1145
aI1154
aI1139
aI1140
aI1139
aI1146
aI1187
aI1196
aI1192
aI1192
aI1183
aI1152
aI1131
aI1132
aI1106
aI1116
aI1119
aI1125
aI1119
aI1088
aI1096
aI1108
aI1120
aI1114
aI1111
aI1124
aI1154
aI1106
aI1100
aI1106
aI1116
aI1137
aI1138
aI1175
aI1195
aI1154
aI1138
aI1158
aI1150
aI1144
aI1149
aI1148
aI1164
aI1174
aI1165
aI1200
aI1203
aI1185
aI1174
aI1181
aI1161
aI1140
aI1134
aI1144
aI1143
aI1133
aI1110
aI1118
aI1095
aI1132
aI1133
aI1117
aI1145
aI1132
aI1150
aI1165
aI1180
aI1178
aI1155
aI1162
aI1145
aI1128
aI1112
aI1151
aI1145
aI1135
aI1139
aI1127
aI1173
aI1142
aI1166
asg22
(lp82
sg24
(lp83
I73
aI81
aI95
aI126
aI128
aI135
aI140
aI126
aI126
aI123
aI126
aI132
aI136
aI149
aI129
aI142
aI145
aI145
aI130
aI146
aI146
aI132
aI145
aI146
aI154
aI134
aI153
aI148
aI136
aI128
aI138
aI151
aI145
aI136
aI143
aI140
aI146
aI148
aI121
aI142
aI152
aI146
aI159
aI138
aI132
aI146
aI133
aI134
aI140
aI139
aI140
aI143
aI131
aI138
aI158
aI141
aI123
aI144
aI137
aI131
aI132
aI142
aI122
aI145
aI140
aI162
aI130
aI144
aI137
aI156
aI138
aI131
aI136
aI139
aI141
aI129
aI126
aI149
aI149
aI144
aI143
aI143
aI144
aI155
aI137
aI135
aI150
aI137
aI133
aI149
aI148
aI122
aI136
aI131
aI140
aI144
aI140
aI152
aI122
aI148
aI123
aI138
aI146
aI157
aI141
aI149
aI156
aI132
aI133
aI134
aI148
aI118
aI129
aI142
aI130
aI144
aI144
aI133
aI157
aI138
aI134
aI146
aI136
aI145
aI136
aI142
aI131
aI149
aI140
aI132
aI128
aI148
aI119
aI136
aI134
aI149
aI139
aI133
aI162
aI134
aI152
aI143
aI139
aI131
aI143
aI143
aI139
aI123
aI152
aI145
asg26
g27
sg28
(lp84
F0.38495497959941327
aF0.3949078414889246
aF0.39957711522271605
aF0.4158810127534346
aF0.41256619195354527
aF0.43360465980092944
aF0.4257835617895685
aF0.4206575461100616
aF0.41472325465410004
aF0.4117809130748933
aF0.41561266970053323
aF0.4188167094320049
aF0.4199480998738449
aF0.4306514211666726
aF0.4183681117150332
aF0.4190499202417041
aF0.42193647930961065
aF0.42078189056539395
aF0.42487799673736115
aF0.41966144243534603
aF0.4243126271310933
aF0.4068848382052125
aF0.4083870483733874
aF0.406395725121531
aF0.4096864487579971
aF0.40842252268450074
aF0.3934860325344192
aF0.3976328933755295
aF0.3949202805642654
aF0.3937081918789191
aF0.3915254117195406
aF0.3931399822445475
aF0.392219764404167
aF0.3985421974396092
aF0.39928413560031595
aF0.3986971020000291
aF0.399012237234282
aF0.392693501574129
aF0.3949760210557238
aF0.3964354114083031
aF0.39613645275135584
aF0.3941326825226308
aF0.4022961093267442
aF0.40192389141556867
aF0.39400298592481275
aF0.4009944796757185
aF0.4005265777624872
aF0.3879805389506138
aF0.40122662497925127
aF0.39551747340064525
aF0.40281112334600794
aF0.401168310490368
aF0.3991289377390462
aF0.39923908140715625
aF0.3979283093982345
aF0.38768976532033056
aF0.39764067724170366
aF0.3913892886103511
aF0.40769452560004893
aF0.40228946708712465
aF0.39778330045587335
aF0.39575338144486005
aF0.40117055188105427
aF0.39857588393792526
aF0.4003651476197428
aF0.4037989478929429
aF0.40068922611494423
aF0.40226815056883986
aF0.40155396603814
aF0.3949958706738053
aF0.3900407433891818
aF0.3977568354814996
aF0.3975239287026984
aF0.39227976727920055
aF0.4011340682342686
aF0.4001088135012369
aF0.40123491724740257
aF0.3919548022390813
aF0.40134916397184817
aF0.3952441741558031
aF0.3966085901279083
aF0.4024700915941712
aF0.39670938001081957
aF0.3997400962539864
aF0.39405349771227605
aF0.40004998139549625
aF0.3951584779592705
aF0.39861865980251526
aF0.4054181602207215
aF0.3988623997886982
aF0.3870095199401649
aF0.39935417172347754
aF0.4019712418414256
aF0.40105692402836945
aF0.4032702444413711
aF0.39525164914822986
aF0.4001996126399915
aF0.40036961661254367
aF0.39564649937067115
aF0.40020025644436175
aF0.3356687629222869
aF0.33533376037178014
aF0.3358075858262975
aF0.33531228705417293
aF0.33737002981077086
aF0.33409542367095385
aF0.3330539179686641
aF0.3321941170888057
aF0.33358169427280804
aF0.33051673429701967
aF0.3348648726993081
aF0.3312273096929329
aF0.33148669299190997
aF0.33644225571289954
aF0.33662993399269014
aF0.33627490100615837
aF0.3331584445226349
aF0.3343346047520764
aF0.3333660673010894
aF0.33382598956885273
aF0.33565639757223364
aF0.3362321412666797
aF0.3340703304411651
aF0.33434396258252425
aF0.33844378302887645
aF0.33345973644101473
aF0.33641287506868706
aF0.3361924445890323
aF0.33123752560558734
aF0.33868930644134615
aF0.3355994828714859
aF0.3301776294799018
aF0.3396900744965022
aF0.34050817017266516
aF0.3367449158354872
aF0.33501301876231815
aF0.3285353528503551
aF0.33615714184603085
aF0.3302326787584125
aF0.3350664593255024
aF0.3349604041944096
aF0.3368831454337028
aF0.3357753725881016
aF0.3365156060592166
aF0.33846607161206427
aF0.3382177777006481
aF0.3325459730702837
aF0.3399145085759877
aF0.34010643777517535
aF0.33517892527199766
asba(iparams
Statistics
p85
(dp86
g8
(lp87
I13
aI23
aI32
aI20
aI38
aI51
aI54
aI55
aI73
aI91
aI121
aI126
aI104
aI124
aI124
aI130
aI129
aI159
aI153
aI156
aI144
aI139
aI133
aI128
aI171
aI135
aI123
aI131
aI152
aI149
aI160
aI158
aI159
aI129
aI126
aI143
aI166
aI145
aI141
aI146
aI167
aI158
aI159
aI151
aI142
aI151
aI155
aI141
aI153
aI145
aI144
aI156
aI153
aI143
aI173
aI142
aI133
aI148
aI150
aI147
aI146
aI168
aI130
aI133
aI142
aI147
aI146
aI166
aI150
aI140
aI148
aI143
aI151
aI148
aI145
aI146
aI151
aI152
aI145
aI156
aI156
aI134
aI136
aI154
aI159
aI154
aI152
aI150
aI154
aI147
aI141
aI149
aI175
aI138
aI163
aI152
aI160
aI152
aI151
aI144
aI149
aI148
aI138
aI149
aI154
aI139
aI141
aI155
aI144
aI144
aI134
aI171
aI162
aI167
aI159
aI151
aI138
aI134
aI142
aI165
aI143
aI146
aI136
aI153
aI143
aI136
aI165
aI161
aI152
aI162
aI151
aI147
aI146
aI153
aI152
aI146
aI148
aI153
aI157
aI153
aI149
aI150
aI154
aI163
aI133
aI151
aI137
aI155
aI155
aI149
asg10
g11
sg12
(lp88
I290
aI427
aI501
aI602
aI648
aI715
aI740
aI741
aI776
aI812
aI799
aI831
aI819
aI842
aI833
aI834
aI854
aI864
aI864
aI858
aI865
aI842
aI852
aI871
aI873
aI823
aI854
aI841
aI871
aI870
aI855
aI884
aI858
aI859
aI896
aI876
aI888
aI898
aI890
aI887
aI896
aI888
aI884
aI898
aI863
aI858
aI871
aI857
aI866
aI850
aI840
aI876
aI833
aI844
aI869
aI868
aI861
aI901
aI859
aI856
aI874
aI843
aI844
aI864
aI882
aI858
aI848
aI862
aI874
aI871
aI860
aI847
aI876
aI856
aI897
aI897
aI901
aI859
aI871
aI851
aI867
aI854
aI870
aI896
aI881
aI903
aI890
aI873
aI873
aI879
aI844
aI886
aI865
aI867
aI877
aI873
aI894
aI886
aI876
aI886
aI900
aI865
aI892
aI865
aI874
aI878
aI879
aI875
aI879
aI858
aI889
aI887
aI888
aI859
aI845
aI852
aI861
aI855
aI875
aI880
aI838
aI879
aI847
aI851
aI831
aI835
aI881
aI888
aI858
aI900
aI919
aI880
aI832
aI861
aI854
aI873
aI860
aI852
aI880
aI868
aI870
aI857
aI875
aI896
aI857
aI883
aI855
aI904
aI904
aI880
asg14
(lp89
I290
aI427
aI501
aI602
aI648
aI715
aI740
aI741
aI776
aI812
aI799
aI831
aI819
aI842
aI833
aI834
aI854
aI864
aI864
aI858
aI865
aI842
aI852
aI871
aI873
aI823
aI854
aI841
aI871
aI870
aI855
aI884
aI858
aI859
aI896
aI876
aI888
aI898
aI890
aI887
aI896
aI888
aI884
aI898
aI863
aI858
aI871
aI857
aI866
aI850
aI840
aI876
aI833
aI844
aI869
aI868
aI861
aI901
aI859
aI856
aI874
aI843
aI844
aI864
aI882
aI858
aI848
aI862
aI874
aI871
aI860
aI847
aI876
aI856
aI897
aI897
aI901
aI859
aI871
aI851
aI867
aI854
aI870
aI896
aI881
aI903
aI890
aI873
aI873
aI879
aI844
aI886
aI865
aI867
aI877
aI873
aI894
aI886
aI876
aI886
aI900
aI865
aI892
aI865
aI874
aI878
aI879
aI875
aI879
aI858
aI889
aI887
aI888
aI859
aI845
aI852
aI861
aI855
aI875
aI880
aI838
aI879
aI847
aI851
aI831
aI835
aI881
aI888
aI858
aI900
aI919
aI880
aI832
aI861
aI854
aI873
aI860
aI852
aI880
aI868
aI870
aI857
aI875
aI896
aI857
aI883
aI855
aI904
aI904
aI880
asg5
(lp90
F4.646050930023193
aF7.542511940002441
aF9.715392827987671
aF12.697796106338501
aF15.03877305984497
aF16.449537992477417
aF17.60807180404663
aF18.33383297920227
aF18.516949892044067
aF19.212213039398193
aF19.66067099571228
aF19.65506601333618
aF19.790452003479004
aF20.52506995201111
aF20.165217876434326
aF20.50007200241089
aF20.796823024749756
aF21.213668823242188
aF21.152362823486328
aF21.18527102470398
aF21.05048894882202
aF20.373068809509277
aF20.674724102020264
aF21.441699981689453
aF21.705663919448853
aF20.50934100151062
aF21.656720876693726
aF21.189332962036133
aF22.01361894607544
aF22.39762306213379
aF21.939498901367188
aF23.15414309501648
aF22.011565923690796
aF21.826918840408325
aF21.765477895736694
aF22.72843599319458
aF22.385465145111084
aF22.138360023498535
aF21.952821969985962
aF22.078448057174683
aF22.547470092773438
aF22.16725206375122
aF22.847097158432007
aF22.20878005027771
aF22.576377153396606
aF21.652751207351685
aF21.649285078048706
aF21.658883094787598
aF21.627156972885132
aF21.30538511276245
aF20.937921047210693
aF21.473260164260864
aF20.728808164596558
aF21.014847993850708
aF21.41221594810486
aF21.04751491546631
aF21.02438187599182
aF21.830368041992188
aF21.775569200515747
aF21.247479915618896
aF22.022686004638672
aF21.291187047958374
aF20.65948486328125
aF21.297080039978027
aF21.256720066070557
aF21.066200017929077
aF21.6475989818573
aF21.691514015197754
aF21.533626794815063
aF21.677408933639526
aF21.21737003326416
aF20.869595050811768
aF21.699508905410767
aF21.30801296234131
aF22.1421000957489
aF22.393534898757935
aF22.375046968460083
aF22.018700122833252
aF21.553781032562256
aF20.920065879821777
aF21.323518991470337
aF20.86486291885376
aF21.467264890670776
aF21.985658884048462
aF21.91031312942505
aF21.912814140319824
aF22.155992031097412
aF21.700856924057007
aF22.969359874725342
aF21.7445969581604
aF21.55715584754944
aF22.13067603111267
aF21.933831930160522
aF22.249863147735596
aF22.10543394088745
aF22.359725952148438
aF22.60669994354248
aF22.672001838684082
aF22.15548300743103
aF22.532952070236206
aF23.027812957763672
aF23.16287088394165
aF23.055384874343872
aF22.563556909561157
aF22.205041885375977
aF22.430776119232178
aF22.481910943984985
aF22.06420111656189
aF22.254606008529663
aF21.927729845046997
aF21.892493963241577
aF23.011982202529907
aF22.553958892822266
aF22.18816590309143
aF21.100225925445557
aF21.21841597557068
aF21.65012812614441
aF21.168678998947144
aF21.477816104888916
aF21.868698120117188
aF21.044892072677612
aF21.562607049942017
aF21.15426516532898
aF21.077583074569702
aF21.26519513130188
aF21.113554000854492
aF21.892858028411865
aF22.120054006576538
aF21.822638034820557
aF22.552340030670166
aF22.25557804107666
aF21.787620067596436
aF21.478134870529175
aF21.621122121810913
aF21.019543170928955
aF21.792394876480103
aF21.430955171585083
aF21.430630922317505
aF21.487893104553223
aF21.524723052978516
aF22.14573383331299
aF22.055465936660767
aF22.375943899154663
aF23.89840602874756
aF21.484095096588135
aF22.86138105392456
aF21.938082933425903
aF22.362180948257446
aF22.603984832763672
aF22.882331132888794
asg17
g1
sg18
(lp91
I331
aI516
aI678
aI841
aI976
aI1050
aI1117
aI1154
aI1182
aI1229
aI1243
aI1240
aI1251
aI1286
aI1280
aI1296
aI1306
aI1348
aI1326
aI1330
aI1317
aI1279
aI1317
aI1357
aI1365
aI1292
aI1336
aI1341
aI1377
aI1387
aI1385
aI1410
aI1352
aI1340
aI1367
aI1416
aI1392
aI1379
aI1382
aI1395
aI1442
aI1377
aI1411
aI1396
aI1372
aI1346
aI1365
aI1328
aI1327
aI1301
aI1295
aI1343
aI1292
aI1320
aI1342
aI1309
aI1310
aI1365
aI1351
aI1330
aI1346
aI1332
aI1311
aI1327
aI1343
aI1305
aI1330
aI1340
aI1329
aI1330
aI1310
aI1336
aI1350
aI1351
aI1386
aI1389
aI1383
aI1345
aI1362
aI1319
aI1329
aI1312
aI1346
aI1364
aI1382
aI1380
aI1384
aI1366
aI1363
aI1345
aI1347
aI1354
aI1354
aI1372
aI1388
aI1391
aI1403
aI1414
aI1404
aI1395
aI1410
aI1403
aI1413
aI1396
aI1377
aI1370
aI1382
aI1365
aI1390
aI1337
aI1372
aI1414
aI1399
aI1362
aI1323
aI1315
aI1335
aI1331
aI1359
aI1359
aI1304
aI1321
aI1290
aI1306
aI1281
aI1320
aI1371
aI1382
aI1371
aI1416
aI1396
aI1375
aI1333
aI1354
aI1328
aI1359
aI1315
aI1344
aI1353
aI1366
aI1392
aI1371
aI1385
aI1394
aI1349
aI1379
aI1381
aI1383
aI1408
aI1435
asg20
(lp92
I332
aI517
aI680
aI842
aI976
aI1052
aI1120
aI1158
aI1187
aI1234
aI1250
aI1249
aI1264
aI1300
aI1289
aI1305
aI1320
aI1361
aI1343
aI1344
aI1326
aI1287
aI1327
aI1376
aI1383
aI1317
aI1351
aI1356
aI1390
aI1403
aI1404
aI1425
aI1375
aI1355
aI1387
aI1435
aI1418
aI1397
aI1395
aI1408
aI1458
aI1390
aI1427
aI1410
aI1388
aI1370
aI1386
aI1346
aI1345
aI1323
aI1315
aI1364
aI1316
aI1338
aI1354
aI1322
aI1326
aI1380
aI1363
aI1343
aI1364
aI1347
aI1328
aI1345
aI1357
aI1317
aI1341
aI1347
aI1342
aI1347
aI1332
aI1352
aI1361
aI1362
aI1399
aI1404
aI1400
aI1366
aI1378
aI1337
aI1351
aI1337
aI1368
aI1392
aI1405
aI1404
aI1399
aI1377
aI1380
aI1362
aI1365
aI1375
aI1372
aI1384
aI1402
aI1404
aI1416
aI1424
aI1417
aI1408
aI1426
aI1416
aI1429
aI1411
aI1398
aI1386
aI1398
aI1392
aI1414
aI1372
aI1397
aI1437
aI1420
aI1375
aI1341
aI1339
aI1350
aI1346
aI1373
aI1377
aI1321
aI1338
aI1316
aI1322
aI1293
aI1334
aI1385
aI1396
aI1398
aI1442
aI1411
aI1390
aI1342
aI1365
aI1348
aI1377
aI1328
aI1356
aI1366
aI1385
aI1412
aI1391
aI1403
aI1412
aI1373
aI1404
aI1403
aI1404
aI1424
aI1449
asg22
(lp93
sg24
(lp94
I83
aI96
aI111
aI118
aI141
aI138
aI141
aI149
aI171
aI169
aI158
aI155
aI157
aI156
aI165
aI167
aI171
aI162
aI157
aI164
aI164
aI161
aI174
aI154
aI166
aI153
aI158
aI159
aI167
aI171
aI150
aI175
aI164
aI144
aI145
aI163
aI160
aI159
aI161
aI167
aI158
aI154
aI173
aI164
aI167
aI160
aI152
aI174
aI163
aI158
aI164
aI168
aI158
aI169
aI153
aI177
aI156
aI164
aI168
aI173
aI171
aI144
aI171
aI164
aI146
aI148
aI167
aI160
aI182
aI157
aI163
aI153
aI157
aI158
aI158
aI151
aI167
aI166
aI171
aI164
aI158
aI188
aI140
aI149
aI157
aI166
aI160
aI169
aI166
aI148
aI158
aI159
aI139
aI171
aI142
aI160
aI168
aI159
aI150
aI160
aI156
aI162
aI159
aI164
aI162
aI150
aI167
aI155
aI166
aI156
aI164
aI166
aI166
aI175
aI155
aI155
aI175
aI168
aI164
aI149
aI170
aI162
aI171
aI166
aI169
aI146
aI149
aI153
aI148
aI154
aI168
aI167
aI157
aI146
aI169
aI159
aI157
aI154
aI144
aI151
aI159
aI156
aI170
aI145
aI169
aI175
aI162
aI148
aI171
aI146
asg26
g27
sg28
(lp95
F0.38297213584933276
aF0.388379179849711
aF0.39737510896541456
aF0.4088725806538906
aF0.41480219897425347
aF0.40884120187267037
aF0.40348864143193286
aF0.4103196592072981
aF0.40537041571617616
aF0.40660643912773575
aF0.4109215760719485
aF0.4063965992547765
aF0.40715811125729295
aF0.4139305682674239
aF0.4128443119681606
aF0.4103961288276653
aF0.40722586617306633
aF0.4108323184168608
aF0.4053548022187939
aF0.4128107960124226
aF0.4149401950196696
aF0.4078399379160305
aF0.3964194448528252
aF0.39816380180822314
aF0.3904297336771686
aF0.39126948748317547
aF0.3917570546260339
aF0.3967889756216696
aF0.3932633622159878
aF0.39260976709947043
aF0.3918711081060538
aF0.381793503208049
aF0.39056830285844013
aF0.3843601826001107
aF0.38499088633598627
aF0.38125199494237055
aF0.38376517787298386
aF0.3755762284811142
aF0.38317956048801644
aF0.38709165287939357
aF0.38232778725795313
aF0.3914629089298946
aF0.3868418220597622
aF0.3789696355732296
aF0.38268481611732064
aF0.3866650439198899
aF0.38575612132617787
aF0.38663446013434627
aF0.38198402885951477
aF0.38891561435485406
aF0.39554368074695895
aF0.39017057749484024
aF0.3999106015157481
aF0.3943277042576908
aF0.39507188878240257
aF0.3907626035693421
aF0.3976340757024384
aF0.3961611497248514
aF0.39400320947549994
aF0.38907722186037264
aF0.38340933726564974
aF0.3899727849489685
aF0.3859123719550449
aF0.3882856980143757
aF0.3850114482577838
aF0.3914142515965029
aF0.3917532175565376
aF0.3896280485166168
aF0.3874535200862627
aF0.3928641544263339
aF0.394330387763167
aF0.3900947760495395
aF0.38817797298261564
aF0.3871067232049164
aF0.38439458655355424
aF0.38640660483363737
aF0.38908162363193016
aF0.39542745164144955
aF0.3889432246738746
aF0.38599944160401317
aF0.3826721044433974
aF0.39235752538380236
aF0.3866555019742736
aF0.38882478504926593
aF0.39315515227885495
aF0.39181580932347243
aF0.38626892332333407
aF0.3793638147171352
aF0.3838378754469123
aF0.3927068870034484
aF0.39748735453235484
aF0.38634781543584745
aF0.39073516560904276
aF0.393685834966637
aF0.3906761911791392
aF0.3851343526116292
aF0.3871844715507457
aF0.3796840478143662
aF0.38434430668775343
aF0.3794640533211795
aF0.327603075831586
aF0.32771211169755393
aF0.3347591075187453
aF0.33179837272092466
aF0.32587290426543025
aF0.32717292688558297
aF0.33009254405991195
aF0.3340497975130152
aF0.32800198075007275
aF0.33289166234961937
aF0.3360110933069307
aF0.3311858797124065
aF0.3346041601378992
aF0.33011746600394365
aF0.3304168160859886
aF0.3330084671600071
aF0.33288818866834713
aF0.32818081728964965
aF0.32693563766830314
aF0.33056171458330436
aF0.33090047454785537
aF0.32820202622223377
aF0.32930760106057577
aF0.3264521606162673
aF0.3311093705595554
aF0.3358895255932333
aF0.33044555374264695
aF0.33304553179697594
aF0.3345533151269987
aF0.3270589014749975
aF0.3227293686628252
aF0.326334724514817
aF0.3304382586572111
aF0.32963561660713053
aF0.3303326150339945
aF0.3345076347266123
aF0.326370180414
aF0.3283752616044362
aF0.3297758658986643
aF0.33311057133232913
aF0.3309571519557756
aF0.33181366789080624
aF0.3338096636332394
aF0.33059884646023496
aF0.32637027474336894
aF0.32872201211150964
aF0.32723337339311875
aF0.3337091016340831
aF0.3333016520914289
aF0.3297569403912773
asba(iparams
Statistics
p96
(dp97
g8
(lp98
I15
aI19
aI25
aI34
aI38
aI44
aI70
aI77
aI76
aI89
aI115
aI118
aI148
aI156
aI168
aI176
aI167
aI175
aI174
aI168
aI176
aI161
aI167
aI177
aI163
aI175
aI174
aI148
aI177
aI158
aI180
aI188
aI164
aI195
aI185
aI151
aI161
aI179
aI183
aI187
aI171
aI183
aI179
aI161
aI168
aI148
aI160
aI169
aI164
aI192
aI175
aI169
aI167
aI179
aI155
aI169
aI195
aI166
aI161
aI167
aI179
aI162
aI165
aI177
aI167
aI175
aI160
aI182
aI180
aI166
aI169
aI173
aI159
aI169
aI176
aI164
aI189
aI173
aI174
aI157
aI159
aI182
aI191
aI163
aI165
aI172
aI161
aI175
aI180
aI152
aI175
aI187
aI178
aI174
aI165
aI176
aI195
aI170
aI178
aI178
aI172
aI181
aI170
aI173
aI188
aI174
aI177
aI163
aI166
aI169
aI191
aI154
aI183
aI156
aI189
aI190
aI175
aI160
aI180
aI173
aI178
aI198
aI175
aI162
aI181
aI173
aI169
aI178
aI172
aI159
aI176
aI184
aI152
aI162
aI172
aI185
aI176
aI170
aI172
aI173
aI185
aI175
aI165
aI180
aI159
aI173
aI201
aI186
aI163
aI177
asg10
g11
sg12
(lp99
I304
aI452
aI534
aI646
aI714
aI763
aI807
aI836
aI869
aI900
aI895
aI877
aI910
aI923
aI928
aI954
aI965
aI977
aI954
aI960
aI967
aI948
aI953
aI954
aI983
aI967
aI985
aI973
aI939
aI917
aI976
aI978
aI978
aI974
aI962
aI925
aI945
aI947
aI931
aI969
aI938
aI961
aI944
aI949
aI951
aI945
aI931
aI941
aI976
aI971
aI962
aI965
aI968
aI939
aI941
aI963
aI964
aI940
aI953
aI956
aI976
aI962
aI952
aI956
aI942
aI950
aI953
aI969
aI966
aI955
aI941
aI941
aI960
aI951
aI957
aI955
aI945
aI915
aI944
aI949
aI948
aI964
aI988
aI960
aI986
aI989
aI987
aI958
aI997
aI970
aI965
aI989
aI965
aI942
aI971
aI981
aI945
aI967
aI925
aI1002
aI984
aI989
aI956
aI997
aI996
aI1005
aI988
aI939
aI935
aI959
aI954
aI969
aI985
aI975
aI963
aI987
aI977
aI989
aI994
aI975
aI981
aI958
aI954
aI942
aI973
aI972
aI950
aI967
aI980
aI1000
aI993
aI978
aI941
aI997
aI969
aI981
aI958
aI968
aI963
aI977
aI995
aI955
aI949
aI962
aI947
aI953
aI959
aI969
aI987
aI953
asg14
(lp100
I304
aI452
aI534
aI646
aI714
aI763
aI807
aI836
aI869
aI900
aI895
aI877
aI910
aI923
aI928
aI954
aI965
aI977
aI954
aI960
aI967
aI948
aI953
aI954
aI983
aI967
aI985
aI973
aI939
aI917
aI976
aI978
aI978
aI974
aI962
aI925
aI945
aI947
aI931
aI969
aI938
aI961
aI944
aI949
aI951
aI945
aI931
aI941
aI976
aI971
aI962
aI965
aI968
aI939
aI941
aI963
aI964
aI940
aI953
aI956
aI976
aI962
aI952
aI956
aI942
aI950
aI953
aI969
aI966
aI955
aI941
aI941
aI960
aI951
aI957
aI955
aI945
aI915
aI944
aI949
aI948
aI964
aI988
aI960
aI986
aI989
aI987
aI958
aI997
aI970
aI965
aI989
aI965
aI942
aI971
aI981
aI945
aI967
aI925
aI1002
aI984
aI989
aI956
aI997
aI996
aI1005
aI988
aI939
aI935
aI959
aI954
aI969
aI985
aI975
aI963
aI987
aI977
aI989
aI994
aI975
aI981
aI958
aI954
aI942
aI973
aI972
aI950
aI967
aI980
aI1000
aI993
aI978
aI941
aI997
aI969
aI981
aI958
aI968
aI963
aI977
aI995
aI955
aI949
aI962
aI947
aI953
aI959
aI969
aI987
aI953
asg5
(lp101
F5.023924827575684
aF7.932333946228027
aF10.583992958068848
aF13.547975063323975
aF16.469892024993896
aF18.689512968063354
aF19.356374979019165
aF20.779050827026367
aF22.32665491104126
aF22.72491192817688
aF23.30442714691162
aF22.836471796035767
aF23.731491088867188
aF24.553325176239014
aF24.284345149993896
aF25.016282081604004
aF24.72855305671692
aF24.957032918930054
aF25.57432794570923
aF24.687793970108032
aF24.756528854370117
aF24.071769952774048
aF24.382495880126953
aF25.34888219833374
aF25.77807879447937
aF25.61187195777893
aF25.21227216720581
aF24.800792932510376
aF24.52436399459839
aF23.8075008392334
aF24.86012291908264
aF25.12079906463623
aF25.245530128479004
aF25.41217303276062
aF24.589882135391235
aF24.032737016677856
aF24.152851819992065
aF24.62555694580078
aF24.661312103271484
aF24.5714910030365
aF24.610034942626953
aF24.870028018951416
aF24.75817322731018
aF24.755656957626343
aF24.73390221595764
aF24.58389902114868
aF24.06067419052124
aF24.133096933364868
aF24.686604976654053
aF25.521650075912476
aF25.253217935562134
aF25.13468313217163
aF25.602527856826782
aF24.20707392692566
aF24.284744024276733
aF25.318955898284912
aF25.552605867385864
aF24.656682014465332
aF24.790955066680908
aF25.213611125946045
aF25.375813961029053
aF25.105291843414307
aF24.864761114120483
aF24.551002979278564
aF24.238726139068604
aF24.632946968078613
aF24.468215942382812
aF24.850661039352417
aF25.19730806350708
aF24.947379112243652
aF24.451900959014893
aF24.909393072128296
aF24.491119146347046
aF24.933494091033936
aF24.841138124465942
aF24.75905179977417
aF24.811110973358154
aF24.59913992881775
aF24.80990505218506
aF24.379225969314575
aF25.692097902297974
aF25.423210859298706
aF25.8078031539917
aF25.556801080703735
aF25.043735027313232
aF25.33051896095276
aF25.52977681159973
aF25.41662096977234
aF25.169477939605713
aF25.49403405189514
aF25.54037094116211
aF25.828890800476074
aF25.178277015686035
aF24.35705280303955
aF25.391335010528564
aF25.538089990615845
aF26.282828092575073
aF24.615532875061035
aF24.70156502723694
aF25.609994888305664
aF25.486089944839478
aF25.28880000114441
aF25.226529121398926
aF25.939311981201172
aF26.35380506515503
aF26.682183980941772
aF25.914654970169067
aF24.52825689315796
aF24.783509016036987
aF25.337934017181396
aF25.000656127929688
aF25.080838918685913
aF26.04209589958191
aF25.675244092941284
aF25.436887979507446
aF25.81165099143982
aF25.4216787815094
aF26.302608966827393
aF26.42527198791504
aF25.423949003219604
aF25.78690218925476
aF25.18663001060486
aF24.765188932418823
aF24.486778020858765
aF25.827823877334595
aF25.507349014282227
aF25.081834077835083
aF26.140182971954346
aF25.684349060058594
aF26.250277996063232
aF26.343666076660156
aF25.319288969039917
aF24.809765100479126
aF25.360749006271362
aF25.25715708732605
aF25.287832021713257
aF24.58711004257202
aF25.111276149749756
aF25.68739604949951
aF25.71571111679077
aF25.868927001953125
aF24.748974084854126
aF24.94656491279602
aF24.886039972305298
aF25.107699871063232
aF25.007483959197998
aF25.435598134994507
aF25.073848009109497
aF25.233144998550415
aF24.762750148773193
asg17
g1
sg18
(lp102
I355
aI562
aI727
aI908
aI1066
aI1200
aI1290
aI1363
aI1425
aI1464
aI1481
aI1501
aI1540
aI1558
aI1562
aI1581
aI1577
aI1627
aI1593
aI1615
aI1608
aI1584
aI1610
aI1635
aI1669
aI1661
aI1623
aI1604
aI1578
aI1546
aI1602
aI1609
aI1639
aI1597
aI1578
aI1531
aI1554
aI1559
aI1564
aI1566
aI1586
aI1593
aI1590
aI1589
aI1576
aI1545
aI1553
aI1558
aI1585
aI1631
aI1606
aI1594
aI1597
aI1560
aI1568
aI1607
aI1632
aI1573
aI1591
aI1630
aI1633
aI1616
aI1610
aI1567
aI1569
aI1575
aI1579
aI1607
aI1620
aI1608
aI1570
aI1570
aI1571
aI1599
aI1600
aI1594
aI1591
aI1586
aI1616
aI1587
aI1628
aI1656
aI1643
aI1650
aI1639
aI1645
aI1655
aI1648
aI1636
aI1619
aI1620
aI1637
aI1602
aI1570
aI1603
aI1642
aI1620
aI1579
aI1589
aI1635
aI1654
aI1660
aI1624
aI1669
aI1682
aI1677
aI1641
aI1596
aI1587
aI1607
aI1612
aI1624
aI1649
aI1664
aI1656
aI1654
aI1654
aI1684
aI1689
aI1631
aI1629
aI1622
aI1598
aI1603
aI1667
aI1651
aI1636
aI1681
aI1656
aI1676
aI1677
aI1645
aI1574
aI1624
aI1644
aI1640
aI1607
aI1632
aI1631
aI1664
aI1652
aI1605
aI1598
aI1609
aI1580
aI1612
aI1638
aI1621
aI1621
aI1573
asg20
(lp103
I356
aI563
aI730
aI910
aI1066
aI1201
aI1293
aI1367
aI1430
aI1473
aI1505
aI1519
aI1560
aI1572
aI1574
aI1597
aI1600
aI1647
aI1624
aI1638
aI1623
aI1601
aI1623
aI1666
aI1688
aI1680
aI1646
aI1628
aI1610
aI1589
aI1637
aI1647
aI1672
aI1632
aI1605
aI1557
aI1576
aI1588
aI1592
aI1591
aI1610
aI1627
aI1617
aI1609
aI1604
aI1572
aI1581
aI1592
aI1620
aI1658
aI1636
aI1637
aI1639
aI1607
aI1610
aI1643
aI1661
aI1608
aI1630
aI1672
aI1673
aI1646
aI1648
aI1605
aI1596
aI1608
aI1605
aI1637
aI1639
aI1634
aI1598
aI1601
aI1598
aI1622
aI1623
aI1625
aI1624
aI1624
aI1645
aI1608
aI1655
aI1680
aI1672
aI1685
aI1671
aI1676
aI1680
aI1677
aI1670
aI1646
aI1656
aI1677
aI1643
aI1624
aI1642
aI1683
aI1672
aI1638
aI1643
aI1669
aI1682
aI1681
aI1650
aI1692
aI1700
aI1693
aI1660
aI1626
aI1625
aI1656
aI1651
aI1652
aI1670
aI1695
aI1712
aI1688
aI1682
aI1710
aI1712
aI1656
aI1650
aI1651
aI1631
aI1626
aI1684
aI1674
aI1659
aI1701
aI1685
aI1714
aI1696
aI1669
aI1608
aI1656
aI1683
aI1670
aI1638
aI1659
aI1662
aI1688
aI1684
aI1630
aI1633
aI1649
aI1626
aI1654
aI1670
aI1638
aI1648
aI1604
asg22
(lp104
sg24
(lp105
I91
aI124
aI121
aI151
aI149
aI146
aI146
aI156
aI176
aI181
aI183
aI178
aI189
aI176
aI178
aI184
aI179
aI169
aI200
aI197
aI204
aI172
aI167
aI169
aI179
aI186
aI177
aI190
aI184
aI186
aI183
aI160
aI191
aI178
aI185
aI215
aI178
aI187
aI187
aI157
aI177
aI180
aI187
aI187
aI178
aI191
aI177
aI187
aI183
aI168
aI200
aI189
aI169
aI167
aI209
aI198
aI165
aI191
aI197
aI182
aI154
aI208
aI181
aI202
aI176
aI200
aI175
aI172
aI195
aI190
aI201
aI158
aI188
aI191
aI189
aI189
aI181
aI183
aI174
aI182
aI170
aI177
aI164
aI176
aI184
aI193
aI184
aI181
aI182
aI183
aI194
aI170
aI177
aI179
aI198
aI174
aI174
aI190
aI154
aI187
aI173
aI194
aI181
aI188
aI175
aI188
aI179
aI183
aI190
aI200
aI151
aI174
aI188
aI176
aI168
aI175
aI178
aI190
aI176
aI184
aI182
aI190
aI177
aI179
aI191
aI178
aI183
aI150
aI178
aI195
aI162
aI165
aI215
aI189
aI178
aI179
aI187
aI194
aI184
aI177
aI195
aI159
aI172
aI176
aI205
aI179
aI174
aI188
aI187
aI186
asg26
g27
sg28
(lp106
F0.37776780803285365
aF0.3842369151341913
aF0.3955197133122202
aF0.395872709902615
aF0.40197065101717133
aF0.40463606973866234
aF0.39691741658594343
aF0.3952891041580401
aF0.3967609777814017
aF0.4003039306942966
aF0.39159478669979936
aF0.3929943261976096
aF0.3979808335564585
aF0.404192913386921
aF0.38855352901924206
aF0.4005834474560072
aF0.40863026036042616
aF0.3936300293560246
aF0.402872104238597
aF0.4004597568180053
aF0.3932446618009522
aF0.3885958869442617
aF0.38549431069076534
aF0.38438279422674737
aF0.3803305407566848
aF0.3866453258598545
aF0.37454534889434715
aF0.37900857356513845
aF0.3770356202453669
aF0.38299144832451193
aF0.3729073353357592
aF0.37308421458320584
aF0.37540729878857043
aF0.37234052813016866
aF0.37352979199507114
aF0.38228518099065817
aF0.3878378356743282
aF0.38671466495550566
aF0.3840383360538787
aF0.38035626928181193
aF0.3828891687455427
aF0.38629606383270815
aF0.37927679117526925
aF0.3839612708113468
aF0.3711167457621305
aF0.37971349050987124
aF0.3770696194118285
aF0.3836051470869576
aF0.38200154489642796
aF0.3766973095907503
aF0.3723282972416661
aF0.3723416683396213
aF0.36690837158411577
aF0.37354990897992524
aF0.38380765277556894
aF0.3800199287325492
aF0.3765251061861802
aF0.38146130015285085
aF0.3850061056623648
aF0.38184758924015394
aF0.3790529483202051
aF0.38048320257138685
aF0.3789237479314344
aF0.375150745875288
aF0.36680024585164467
aF0.37953587781032555
aF0.38074830755203254
aF0.3787353715888781
aF0.37393147620101286
aF0.3773467071857517
aF0.38024342917692894
aF0.3824767541086482
aF0.37916835011290206
aF0.37451571005631773
aF0.38154733502054416
aF0.3881932880803026
aF0.3801690440298752
aF0.3854322320358694
aF0.3749229080787848
aF0.3845676457932925
aF0.3705578597579258
aF0.37740097932550387
aF0.37995690397409615
aF0.38212836732131106
aF0.3813614099217927
aF0.375571436144742
aF0.37508351653655
aF0.3664342093841846
aF0.3802333749827598
aF0.37529323800051545
aF0.3763541678040844
aF0.3783604596913241
aF0.3752700935783207
aF0.38106523607813786
aF0.37605371632969914
aF0.3746706606099173
aF0.3809189757016966
aF0.3882690753154554
aF0.3860709010264436
aF0.37436363170893205
aF0.32826169112231096
aF0.32083541718048686
aF0.3297135159554541
aF0.32840650582546893
aF0.32670488106697193
aF0.3196232618045971
aF0.32778533320558256
aF0.324955466234357
aF0.3274645074031263
aF0.32971831995551704
aF0.3285473434049204
aF0.3151491369217606
aF0.3305323712219496
aF0.32849689094336965
aF0.33045988914697766
aF0.3213917526382723
aF0.32886010555053524
aF0.32252604303095833
aF0.32071596444658457
aF0.32793280474108416
aF0.32408785766178333
aF0.3292368261552618
aF0.33068811899844475
aF0.324933366056564
aF0.32204464640609604
aF0.32626533279895664
aF0.3265199026127987
aF0.3251687455832658
aF0.3228358140750785
aF0.3278650498446914
aF0.3209181254261778
aF0.32727290296760925
aF0.326280602325117
aF0.32905642975995736
aF0.3223985596347231
aF0.32837040705826465
aF0.3295972533790146
aF0.3291207752650601
aF0.32763367273123306
aF0.32849816440047835
aF0.3304734014466933
aF0.3247303770159646
aF0.3270605852264186
aF0.3313196517360288
aF0.32683333896917866
aF0.3214454686922125
aF0.322716602765681
aF0.3266052393139739
aF0.3266406835398005
aF0.32644070532411196
asba(iparams
Statistics
p107
(dp108
g8
(lp109
I14
aI13
aI27
aI23
aI29
aI54
aI79
aI75
aI108
aI123
aI116
aI124
aI148
aI169
aI180
aI179
aI176
aI205
aI203
aI226
aI201
aI175
aI205
aI207
aI194
aI207
aI197
aI198
aI191
aI183
aI186
aI194
aI189
aI196
aI194
aI203
aI187
aI178
aI206
aI199
aI192
aI194
aI189
aI196
aI213
aI199
aI195
aI202
aI181
aI209
aI215
aI208
aI182
aI181
aI212
aI178
aI197
aI193
aI203
aI182
aI201
aI169
aI198
aI206
aI200
aI201
aI198
aI205
aI197
aI198
aI190
aI203
aI189
aI211
aI196
aI203
aI199
aI186
aI175
aI191
aI192
aI193
aI210
aI229
aI206
aI201
aI193
aI188
aI199
aI191
aI217
aI189
aI170
aI190
aI193
aI200
aI211
aI208
aI187
aI188
aI193
aI197
aI169
aI176
aI198
aI184
aI210
aI206
aI209
aI188
aI192
aI193
aI213
aI203
aI223
aI194
aI204
aI223
aI204
aI203
aI194
aI195
aI174
aI183
aI186
aI193
aI190
aI210
aI210
aI220
aI212
aI202
aI186
aI192
aI178
aI202
aI199
aI205
aI174
aI197
aI182
aI193
aI173
aI196
aI209
aI184
aI189
aI184
aI197
aI179
asg10
g11
sg12
(lp110
I344
aI469
aI611
aI706
aI758
aI822
aI875
aI901
aI938
aI943
aI954
aI1011
aI1013
aI1007
aI1019
aI1046
aI1064
aI1065
aI1066
aI1051
aI1067
aI1043
aI1073
aI1062
aI1033
aI1039
aI1064
aI1032
aI1041
aI1054
aI1040
aI1061
aI1020
aI1025
aI1033
aI1043
aI1032
aI1020
aI1088
aI1053
aI1073
aI1052
aI1049
aI1061
aI1057
aI1044
aI1057
aI1084
aI1067
aI1079
aI1048
aI1043
aI1045
aI1064
aI1068
aI1037
aI1051
aI1041
aI1067
aI1066
aI1043
aI1048
aI1071
aI1056
aI1053
aI1040
aI1037
aI1020
aI1027
aI1053
aI1028
aI1022
aI1052
aI1029
aI1037
aI1062
aI1025
aI1017
aI1036
aI1017
aI1039
aI1035
aI1054
aI1044
aI1039
aI1057
aI1029
aI1035
aI1047
aI1048
aI1038
aI1045
aI1033
aI1020
aI1069
aI1042
aI1030
aI1039
aI1059
aI1066
aI1021
aI1052
aI1029
aI1046
aI1034
aI1068
aI1064
aI1074
aI1061
aI1056
aI1051
aI1051
aI1067
aI1065
aI1062
aI1034
aI1034
aI1038
aI1044
aI1033
aI990
aI1033
aI1018
aI1033
aI1048
aI1029
aI1027
aI1056
aI1045
aI1034
aI1013
aI1039
aI1030
aI1020
aI1036
aI1017
aI1030
aI1058
aI1059
aI1030
aI1021
aI1027
aI1019
aI1030
aI1039
aI1025
aI1061
aI1057
aI1052
aI1049
asg14
(lp111
I344
aI469
aI611
aI706
aI758
aI822
aI875
aI901
aI938
aI943
aI954
aI1011
aI1013
aI1007
aI1019
aI1046
aI1064
aI1065
aI1066
aI1051
aI1067
aI1043
aI1073
aI1062
aI1033
aI1039
aI1064
aI1032
aI1041
aI1054
aI1040
aI1061
aI1020
aI1025
aI1033
aI1043
aI1032
aI1020
aI1088
aI1053
aI1073
aI1052
aI1049
aI1061
aI1057
aI1044
aI1057
aI1084
aI1067
aI1079
aI1048
aI1043
aI1045
aI1064
aI1068
aI1037
aI1051
aI1041
aI1067
aI1066
aI1043
aI1048
aI1071
aI1056
aI1053
aI1040
aI1037
aI1020
aI1027
aI1053
aI1028
aI1022
aI1052
aI1029
aI1037
aI1062
aI1025
aI1017
aI1036
aI1017
aI1039
aI1035
aI1054
aI1044
aI1039
aI1057
aI1029
aI1035
aI1047
aI1048
aI1038
aI1045
aI1033
aI1020
aI1069
aI1042
aI1030
aI1039
aI1059
aI1066
aI1021
aI1052
aI1029
aI1046
aI1034
aI1068
aI1064
aI1074
aI1061
aI1056
aI1051
aI1051
aI1067
aI1065
aI1062
aI1034
aI1034
aI1038
aI1044
aI1033
aI990
aI1033
aI1018
aI1033
aI1048
aI1029
aI1027
aI1056
aI1045
aI1034
aI1013
aI1039
aI1030
aI1020
aI1036
aI1017
aI1030
aI1058
aI1059
aI1030
aI1021
aI1027
aI1019
aI1030
aI1039
aI1025
aI1061
aI1057
aI1052
aI1049
asg5
(lp112
F5.539971113204956
aF8.284104108810425
aF12.075663089752197
aF15.374780893325806
aF18.01878595352173
aF20.18257784843445
aF21.104105949401855
aF22.58910584449768
aF23.472944021224976
aF24.13341212272644
aF25.465593814849854
aF26.272347927093506
aF26.48305106163025
aF26.78087592124939
aF27.590451955795288
aF27.781809091567993
aF28.428611993789673
aF28.691035985946655
aF28.423320055007935
aF28.06439518928528
aF28.324111938476562
aF27.943105936050415
aF29.090916872024536
aF29.285122871398926
aF28.409397840499878
aF28.1862530708313
aF27.65049910545349
aF28.01053786277771
aF27.84573197364807
aF28.56552290916443
aF28.497010946273804
aF28.442690134048462
aF27.178189039230347
aF27.43765902519226
aF27.949676990509033
aF27.819815158843994
aF28.181988954544067
aF28.08394193649292
aF28.681906938552856
aF29.35164785385132
aF28.408599853515625
aF28.375750064849854
aF28.45151710510254
aF28.7391140460968
aF28.829102039337158
aF28.579869031906128
aF28.577302932739258
aF28.53804302215576
aF28.393546104431152
aF28.9829158782959
aF28.384066820144653
aF28.46467614173889
aF27.752236127853394
aF27.90029501914978
aF28.445942163467407
aF27.555068969726562
aF27.791741847991943
aF28.209060192108154
aF28.254069089889526
aF28.558885097503662
aF27.602818965911865
aF27.98168182373047
aF28.800585985183716
aF28.153010845184326
aF28.64363193511963
aF28.872659921646118
aF27.89273691177368
aF29.08650803565979
aF28.693801879882812
aF28.536032915115356
aF27.829466104507446
aF27.355086088180542
aF28.728294849395752
aF27.470070838928223
aF27.684793949127197
aF28.10551404953003
aF27.72908592224121
aF27.03351092338562
aF27.821923971176147
aF27.70859694480896
aF28.782949209213257
aF27.671151161193848
aF27.90866994857788
aF27.88364815711975
aF28.09043002128601
aF27.783901929855347
aF27.66361117362976
aF28.070039987564087
aF27.568809032440186
aF27.978259086608887
aF27.411155939102173
aF27.07394504547119
aF27.07638716697693
aF27.766194105148315
aF28.11862587928772
aF27.793285131454468
aF28.085694074630737
aF27.814906120300293
aF27.317116022109985
aF28.65597701072693
aF27.880104064941406
aF28.472887992858887
aF27.523364067077637
aF28.687957048416138
aF28.461509943008423
aF28.849472045898438
aF28.997809886932373
aF28.60993790626526
aF28.49910306930542
aF28.11367702484131
aF27.71717405319214
aF27.60620903968811
aF28.29672408103943
aF28.498553037643433
aF28.13264799118042
aF27.902714014053345
aF27.958163022994995
aF28.149240016937256
aF27.94901394844055
aF27.455021858215332
aF26.652734994888306
aF26.856213092803955
aF27.09557795524597
aF27.356125831604004
aF27.719690799713135
aF27.73610496520996
aF27.77139902114868
aF28.50069785118103
aF27.971578121185303
aF27.788567066192627
aF27.858175039291382
aF27.67351007461548
aF27.593318939208984
aF27.473442792892456
aF27.865851163864136
aF27.436152935028076
aF27.607295989990234
aF27.208420038223267
aF27.717616081237793
aF27.352839946746826
aF26.692004919052124
aF26.65177321434021
aF27.145699977874756
aF28.043440103530884
aF28.262153148651123
aF28.435374975204468
aF28.47161102294922
aF29.329463005065918
aF28.22710394859314
aF29.16904902458191
asg17
g1
sg18
(lp113
I398
aI605
aI847
aI1035
aI1195
aI1347
aI1442
aI1548
aI1626
aI1656
aI1719
aI1795
aI1822
aI1830
aI1867
aI1909
aI1944
aI1925
aI1895
aI1894
aI1869
aI1889
aI1939
aI1933
aI1901
aI1898
aI1890
aI1868
aI1866
aI1884
aI1861
aI1866
aI1825
aI1837
aI1845
aI1848
aI1867
aI1909
aI1948
aI1921
aI1937
aI1908
aI1915
aI1924
aI1912
aI1934
aI1931
aI1937
aI1922
aI1930
aI1888
aI1872
aI1877
aI1875
aI1901
aI1850
aI1884
aI1884
aI1906
aI1922
aI1892
aI1868
aI1887
aI1876
aI1919
aI1891
aI1889
aI1911
aI1895
aI1887
aI1858
aI1839
aI1863
aI1860
aI1872
aI1875
aI1853
aI1821
aI1845
aI1870
aI1874
aI1868
aI1918
aI1893
aI1881
aI1882
aI1865
aI1868
aI1866
aI1898
aI1866
aI1823
aI1825
aI1831
aI1867
aI1858
aI1861
aI1883
aI1870
aI1915
aI1895
aI1882
aI1864
aI1923
aI1913
aI1917
aI1946
aI1922
aI1916
aI1889
aI1874
aI1879
aI1895
aI1897
aI1863
aI1859
aI1889
aI1905
aI1850
aI1825
aI1783
aI1795
aI1832
aI1850
aI1862
aI1837
aI1873
aI1920
aI1890
aI1886
aI1875
aI1875
aI1864
aI1852
aI1861
aI1875
aI1868
aI1863
aI1841
aI1843
aI1813
aI1821
aI1824
aI1899
aI1944
aI1932
aI1944
aI1928
aI1921
aI1949
asg20
(lp114
I400
aI606
aI848
aI1035
aI1196
aI1354
aI1452
aI1563
aI1649
aI1695
aI1752
aI1831
aI1873
aI1897
aI1927
aI1958
aI1994
aI1985
aI1959
aI1958
aI1921
aI1937
aI1980
aI1985
aI1936
aI1945
aI1943
aI1935
aI1918
aI1937
aI1909
aI1909
aI1894
aI1901
aI1904
aI1912
aI1926
aI1967
aI2000
aI1999
aI1995
aI1972
aI1997
aI2011
aI1982
aI1996
aI1999
aI1999
aI1973
aI1976
aI1945
aI1925
aI1920
aI1936
aI1957
aI1897
aI1940
aI1948
aI1966
aI1984
aI1954
aI1938
aI1957
aI1931
aI1956
aI1946
aI1950
aI1971
aI1953
aI1967
aI1919
aI1906
aI1917
aI1901
aI1912
aI1908
aI1890
aI1865
aI1898
aI1927
aI1932
aI1922
aI1954
aI1938
aI1908
aI1910
aI1909
aI1913
aI1915
aI1941
aI1909
aI1870
aI1882
aI1884
aI1913
aI1910
aI1923
aI1921
aI1920
aI1968
aI1953
aI1956
aI1926
aI1983
aI1970
aI1980
aI2008
aI1990
aI1988
aI1954
aI1926
aI1944
aI1954
aI1952
aI1917
aI1920
aI1929
aI1931
aI1890
aI1872
aI1835
aI1858
aI1887
aI1907
aI1916
aI1903
aI1940
aI1977
aI1945
aI1936
aI1923
aI1918
aI1912
aI1903
aI1896
aI1913
aI1900
aI1895
aI1866
aI1870
aI1844
aI1859
aI1872
aI1944
aI1999
aI1975
aI1991
aI1970
aI1970
aI2012
asg22
(lp115
sg24
(lp116
I84
aI138
aI132
aI164
aI192
aI168
aI178
aI188
aI189
aI194
aI193
aI195
aI185
aI181
aI186
aI205
aI204
aI213
aI216
aI206
aI207
aI189
aI207
aI234
aI214
aI210
aI205
aI196
aI190
aI210
aI215
aI223
aI203
aI207
aI210
aI186
aI181
aI193
aI198
aI193
aI204
aI223
aI198
aI198
aI167
aI213
aI211
aI201
aI243
aI208
aI209
aI220
aI201
aI195
aI180
aI223
aI186
aI208
aI179
aI201
aI203
aI228
aI204
aI218
aI187
aI212
aI179
aI199
aI213
aI215
aI212
aI217
aI214
aI204
aI201
aI203
aI204
aI211
aI203
aI181
aI195
aI207
aI210
aI215
aI204
aI211
aI216
aI199
aI189
aI215
aI201
aI198
aI218
aI225
aI195
aI194
aI192
aI173
aI202
aI205
aI203
aI202
aI202
aI198
aI215
aI210
aI199
aI196
aI205
aI219
aI215
aI187
aI209
aI211
aI208
aI192
aI204
aI208
aI208
aI209
aI201
aI189
aI204
aI197
aI206
aI205
aI204
aI211
aI208
aI192
aI185
aI200
aI226
aI208
aI206
aI214
aI194
aI210
aI228
aI210
aI222
aI189
aI201
aI186
aI187
aI192
aI210
aI186
aI204
aI187
asg26
g27
sg28
(lp117
F0.37651186390747055
aF0.3850231048668107
aF0.38531465749949845
aF0.39219759485677413
aF0.38849712997568886
aF0.3938701679235226
aF0.3915014409366629
aF0.3907590831435039
aF0.37662145398767294
aF0.37954499480173964
aF0.38120350090740623
aF0.3769106239155037
aF0.3834771473496781
aF0.3819236972021921
aF0.3920463623892207
aF0.39277581802826883
aF0.3828086520032574
aF0.3800413223315362
aF0.37986811214346744
aF0.3869071549517604
aF0.38635087065458845
aF0.38158165095429325
aF0.37751366167386197
aF0.3746889408409788
aF0.3790092010014843
aF0.37268932469847815
aF0.3703270995282821
aF0.3710400398050934
aF0.3664217277596933
aF0.37089601549351703
aF0.37465410100233754
aF0.36897431038536477
aF0.3685692423541392
aF0.3689558817580041
aF0.3746975819300646
aF0.37603932862779504
aF0.37400089909963796
aF0.36591586550656935
aF0.3684935122772126
aF0.3697673148473739
aF0.3634264703613824
aF0.3648650476923462
aF0.3710713286813262
aF0.37617765144545123
aF0.37588405297974714
aF0.3709349280000571
aF0.375231172733935
aF0.3564828498989658
aF0.36659882996005816
aF0.36554745803742533
aF0.3775446125679455
aF0.36903288627765796
aF0.36739065929990194
aF0.3710005285811328
aF0.3662087904755431
aF0.3692557949044365
aF0.36921044663374863
aF0.3736157543871218
aF0.37475081871135774
aF0.37145078237168644
aF0.3744846004535596
aF0.3683830778278849
aF0.37104277284152987
aF0.36882861371444
aF0.36506641258582545
aF0.3737805060139934
aF0.36804483576096575
aF0.3734995053127241
aF0.36859554921872123
aF0.3653045749593125
aF0.3672950848972153
aF0.3605551615259332
aF0.3698320018381439
aF0.3711051403799755
aF0.37284656094817925
aF0.3706532481732659
aF0.36366452888314926
aF0.3626268558352937
aF0.368350462279884
aF0.3697744319694525
aF0.37194787621067316
aF0.37579913737792625
aF0.3802781514195831
aF0.37483096367539925
aF0.37082358830759726
aF0.3583947955236348
aF0.36514903123302417
aF0.3747315950286509
aF0.3705999069604954
aF0.36652541815863415
aF0.36848811761543043
aF0.377464774059457
aF0.3667741687358578
aF0.379316600460139
aF0.36643523184084204
aF0.3677833394465016
aF0.362732265449239
aF0.370294714480512
aF0.3651092493554294
aF0.3735999864090032
aF0.31774351321881616
aF0.3178585572368957
aF0.32547827291325115
aF0.3176497419354583
aF0.3176052242005315
aF0.3241607918180986
aF0.3219322126922077
aF0.3236006701992471
aF0.32332534607988367
aF0.3222924048527101
aF0.3155849567525402
aF0.3246224989820933
aF0.3236773582224941
aF0.3297650414341514
aF0.3237868603658165
aF0.324363344027877
aF0.3190110120129705
aF0.325367302644939
aF0.31899430888867036
aF0.32350912696105893
aF0.3163429368706258
aF0.3246920617121634
aF0.31962334546889737
aF0.32915684365072356
aF0.31841983071944796
aF0.32074056147286467
aF0.3239694505060932
aF0.32563957889174006
aF0.31918727616198034
aF0.3303835469912458
aF0.32515676190137766
aF0.31863823318309453
aF0.32018427218799606
aF0.3244397056068865
aF0.32235296565500304
aF0.33064061479033485
aF0.32595109520747856
aF0.325139684428943
aF0.32458661142646755
aF0.32504241446761223
aF0.31579500025956025
aF0.3198138528975732
aF0.32523634537342583
aF0.3210453849106498
aF0.3249476280450045
aF0.3234409704225315
aF0.31439233070790745
aF0.31970456434933514
aF0.32277249519434653
aF0.32381603976726997
asba(iparams
Statistics
p118
(dp119
g8
(lp120
I12
aI22
aI36
aI37
aI40
aI42
aI62
aI87
aI119
aI120
aI137
aI166
aI170
aI173
aI197
aI178
aI207
aI219
aI223
aI221
aI217
aI188
aI227
aI213
aI215
aI244
aI221
aI240
aI223
aI225
aI226
aI215
aI202
aI216
aI213
aI198
aI206
aI226
aI235
aI217
aI196
aI216
aI222
aI205
aI218
aI222
aI220
aI193
aI241
aI233
aI223
aI240
aI205
aI212
aI236
aI230
aI243
aI201
aI226
aI211
aI204
aI202
aI199
aI202
aI216
aI233
aI227
aI226
aI229
aI220
aI224
aI227
aI213
aI210
aI227
aI219
aI202
aI214
aI226
aI222
aI196
aI208
aI222
aI225
aI195
aI237
aI196
aI199
aI219
aI230
aI218
aI201
aI226
aI227
aI224
aI234
aI209
aI209
aI226
aI219
aI231
aI211
aI181
aI223
aI203
aI209
aI194
aI198
aI228
aI214
aI214
aI211
aI206
aI238
aI220
aI227
aI221
aI224
aI212
aI221
aI222
aI212
aI202
aI218
aI216
aI234
aI212
aI223
aI218
aI209
aI224
aI215
aI230
aI195
aI192
aI215
aI219
aI234
aI240
aI204
aI221
aI220
aI211
aI220
aI216
aI207
aI221
aI212
aI238
aI205
asg10
g11
sg12
(lp121
I350
aI508
aI661
aI736
aI831
aI889
aI927
aI951
aI977
aI990
aI1014
aI1082
aI1050
aI1080
aI1077
aI1067
aI1098
aI1111
aI1109
aI1130
aI1133
aI1110
aI1145
aI1107
aI1095
aI1095
aI1123
aI1124
aI1117
aI1137
aI1105
aI1100
aI1121
aI1089
aI1116
aI1103
aI1089
aI1132
aI1100
aI1106
aI1122
aI1098
aI1107
aI1117
aI1145
aI1132
aI1133
aI1129
aI1110
aI1114
aI1116
aI1128
aI1117
aI1125
aI1112
aI1102
aI1108
aI1096
aI1113
aI1120
aI1134
aI1144
aI1091
aI1137
aI1107
aI1121
aI1103
aI1107
aI1083
aI1101
aI1098
aI1096
aI1102
aI1109
aI1099
aI1101
aI1082
aI1091
aI1093
aI1117
aI1087
aI1106
aI1132
aI1108
aI1091
aI1105
aI1118
aI1088
aI1114
aI1109
aI1136
aI1114
aI1124
aI1111
aI1100
aI1096
aI1123
aI1087
aI1088
aI1091
aI1084
aI1078
aI1091
aI1122
aI1103
aI1136
aI1116
aI1115
aI1133
aI1109
aI1126
aI1116
aI1115
aI1129
aI1126
aI1110
aI1121
aI1124
aI1098
aI1111
aI1094
aI1105
aI1115
aI1106
aI1114
aI1109
aI1113
aI1117
aI1110
aI1091
aI1133
aI1128
aI1085
aI1118
aI1120
aI1108
aI1118
aI1127
aI1097
aI1095
aI1102
aI1117
aI1074
aI1091
aI1105
aI1091
aI1098
aI1089
aI1085
aI1100
asg14
(lp122
I350
aI508
aI661
aI736
aI831
aI889
aI927
aI951
aI977
aI990
aI1014
aI1082
aI1050
aI1080
aI1077
aI1067
aI1098
aI1111
aI1109
aI1130
aI1133
aI1110
aI1145
aI1107
aI1095
aI1095
aI1123
aI1124
aI1117
aI1137
aI1105
aI1100
aI1121
aI1089
aI1116
aI1103
aI1089
aI1132
aI1100
aI1106
aI1122
aI1098
aI1107
aI1117
aI1145
aI1132
aI1133
aI1129
aI1110
aI1114
aI1116
aI1128
aI1117
aI1125
aI1112
aI1102
aI1108
aI1096
aI1113
aI1120
aI1134
aI1144
aI1091
aI1137
aI1107
aI1121
aI1103
aI1107
aI1083
aI1101
aI1098
aI1096
aI1102
aI1109
aI1099
aI1101
aI1082
aI1091
aI1093
aI1117
aI1087
aI1106
aI1132
aI1108
aI1091
aI1105
aI1118
aI1088
aI1114
aI1109
aI1136
aI1114
aI1124
aI1111
aI1100
aI1096
aI1123
aI1087
aI1088
aI1091
aI1084
aI1078
aI1091
aI1122
aI1103
aI1136
aI1116
aI1115
aI1133
aI1109
aI1126
aI1116
aI1115
aI1129
aI1126
aI1110
aI1121
aI1124
aI1098
aI1111
aI1094
aI1105
aI1115
aI1106
aI1114
aI1109
aI1113
aI1117
aI1110
aI1091
aI1133
aI1128
aI1085
aI1118
aI1120
aI1108
aI1118
aI1127
aI1097
aI1095
aI1102
aI1117
aI1074
aI1091
aI1105
aI1091
aI1098
aI1089
aI1085
aI1100
asg5
(lp123
F5.688325881958008
aF9.109525918960571
aF12.648173809051514
aF16.26885414123535
aF19.179667949676514
aF21.506948947906494
aF23.492755889892578
aF24.585938930511475
aF26.661128997802734
aF26.986846923828125
aF27.2321457862854
aF28.43845295906067
aF28.259214162826538
aF28.748539924621582
aF29.562263011932373
aF29.43280601501465
aF30.270421028137207
aF31.171716928482056
aF30.866470098495483
aF31.021183967590332
aF30.96851897239685
aF30.293118000030518
aF30.806947946548462
aF30.61077117919922
aF30.777963876724243
aF30.40162205696106
aF30.646097898483276
aF30.618951082229614
aF30.519983053207397
aF30.228986024856567
aF29.9476261138916
aF29.661526203155518
aF30.48357605934143
aF29.676922082901
aF30.2308030128479
aF30.712591886520386
aF30.069268941879272
aF31.460307121276855
aF30.7169189453125
aF30.11534810066223
aF29.800391912460327
aF30.03394103050232
aF30.586486101150513
aF30.59486413002014
aF30.899747848510742
aF30.79892086982727
aF30.46657109260559
aF30.02779197692871
aF30.495482921600342
aF30.316745042800903
aF30.625014066696167
aF30.17965006828308
aF30.138153076171875
aF30.51278018951416
aF30.57829999923706
aF30.678854942321777
aF31.18340015411377
aF30.558134078979492
aF30.542298078536987
aF30.345459938049316
aF29.83481216430664
aF30.73813509941101
aF30.232803106307983
aF31.170024156570435
aF31.471280097961426
aF31.452908992767334
aF31.59099292755127
aF31.431915998458862
aF29.559643030166626
aF29.759979009628296
aF30.282649993896484
aF30.14708709716797
aF30.119071006774902
aF30.076860189437866
aF30.29447889328003
aF30.216400146484375
aF29.667078018188477
aF30.10458016395569
aF30.294551849365234
aF29.86287498474121
aF30.13741397857666
aF30.196779012680054
aF30.631964921951294
aF31.108021020889282
aF30.346062898635864
aF30.581918001174927
aF30.68011999130249
aF30.06507110595703
aF30.25195002555847
aF30.612680912017822
aF30.799927949905396
aF31.093996047973633
aF31.567312002182007
aF30.440146923065186
aF30.215889930725098
aF30.564460039138794
aF30.548690795898438
aF29.39026117324829
aF29.471930027008057
aF29.4387149810791
aF30.518984079360962
aF29.309343099594116
aF32.63417387008667
aF31.559993982315063
aF31.93565082550049
aF31.693590879440308
aF32.16387391090393
aF34.69895100593567
aF35.726237058639526
aF35.3949670791626
aF34.548644065856934
aF34.93767714500427
aF37.13558292388916
aF36.1660590171814
aF37.878063917160034
aF37.67611384391785
aF37.4690580368042
aF36.370665073394775
aF37.50704288482666
aF33.47381281852722
aF30.10461401939392
aF32.197012186050415
aF34.933326959609985
aF34.89097595214844
aF34.37727499008179
aF32.90362215042114
aF34.219890117645264
aF34.037083864212036
aF33.27833104133606
aF33.29259705543518
aF30.85537099838257
aF30.492552042007446
aF31.481128931045532
aF33.46142387390137
aF32.61526393890381
aF32.6017951965332
aF33.072185039520264
aF31.78970193862915
aF31.996803998947144
aF31.883553981781006
aF32.146106004714966
aF31.284887075424194
aF29.59990119934082
aF29.790441036224365
aF29.609251022338867
aF29.936522960662842
aF29.6128351688385
aF30.072129011154175
aF30.12451696395874
aF32.077680826187134
asg17
g1
sg18
(lp124
I421
aI678
aI945
aI1160
aI1366
aI1500
aI1645
aI1703
aI1828
aI1884
aI1954
aI2011
aI2016
aI2038
aI2058
aI2066
aI2124
aI2146
aI2174
aI2170
aI2162
aI2128
aI2139
aI2088
aI2105
aI2126
aI2143
aI2166
aI2161
aI2182
aI2125
aI2083
aI2125
aI2095
aI2071
aI2093
aI2105
aI2174
aI2120
aI2102
aI2116
aI2150
aI2162
aI2138
aI2144
aI2154
aI2150
aI2154
aI2169
aI2135
aI2156
aI2114
aI2130
aI2168
aI2192
aI2176
aI2171
aI2150
aI2151
aI2144
aI2121
aI2128
aI2127
aI2161
aI2141
aI2157
aI2124
aI2082
aI2027
aI2074
aI2093
aI2064
aI2081
aI2104
aI2105
aI2077
aI2076
aI2140
aI2145
aI2128
aI2088
aI2147
aI2162
aI2142
aI2148
aI2151
aI2113
aI2124
aI2152
aI2162
aI2181
aI2171
aI2154
aI2139
aI2106
aI2093
aI2059
aI2075
aI2057
aI2075
aI2075
aI2078
aI2084
aI2128
aI2111
aI2123
aI2114
aI2111
aI2140
aI2132
aI2126
aI2162
aI2152
aI2174
aI2144
aI2118
aI2118
aI2143
aI2137
aI2138
aI2125
aI2086
aI2095
aI2082
aI2110
aI2123
aI2134
aI2158
aI2146
aI2150
aI2168
aI2142
aI2112
aI2090
aI2082
aI2104
aI2112
aI2120
aI2037
aI2016
aI2067
aI2076
aI2054
aI2093
aI2068
aI2066
aI2095
aI2097
aI2049
aI2078
asg20
(lp125
I421
aI680
aI946
aI1162
aI1369
aI1504
aI1655
aI1734
aI1870
aI1924
aI2003
aI2070
aI2084
aI2113
aI2142
aI2168
aI2235
aI2264
aI2278
aI2256
aI2240
aI2214
aI2239
aI2208
aI2243
aI2255
aI2256
aI2276
aI2257
aI2262
aI2227
aI2192
aI2219
aI2187
aI2157
aI2175
aI2210
aI2230
aI2192
aI2201
aI2218
aI2240
aI2239
aI2225
aI2250
aI2268
aI2241
aI2243
aI2267
aI2256
aI2266
aI2230
aI2212
aI2279
aI2287
aI2275
aI2272
aI2244
aI2248
aI2225
aI2216
aI2215
aI2219
aI2259
aI2253
aI2255
aI2224
aI2202
aI2159
aI2170
aI2193
aI2169
aI2175
aI2181
aI2183
aI2161
aI2163
aI2237
aI2273
aI2256
aI2218
aI2255
aI2259
aI2241
aI2243
aI2263
aI2228
aI2243
aI2289
aI2285
aI2300
aI2300
aI2291
aI2244
aI2217
aI2204
aI2178
aI2182
aI2165
aI2180
aI2142
aI2146
aI2167
aI2193
aI2166
aI2187
aI2169
aI2188
aI2218
aI2201
aI2205
aI2230
aI2254
aI2269
aI2256
aI2240
aI2207
aI2219
aI2205
aI2206
aI2194
aI2170
aI2173
aI2169
aI2193
aI2218
aI2232
aI2242
aI2231
aI2244
aI2260
aI2245
aI2229
aI2176
aI2175
aI2207
aI2205
aI2210
aI2157
aI2107
aI2157
aI2163
aI2145
aI2183
aI2160
aI2158
aI2168
aI2167
aI2151
aI2145
asg22
(lp126
sg24
(lp127
I110
aI143
aI158
aI185
aI194
aI205
aI204
aI216
aI201
aI207
aI218
aI226
aI241
aI217
aI220
aI216
aI224
aI217
aI228
aI227
aI216
aI236
aI214
aI231
aI208
aI229
aI239
aI207
aI233
aI232
aI239
aI223
aI212
aI259
aI235
aI222
aI207
aI251
aI228
aI202
aI229
aI219
aI224
aI228
aI213
aI202
aI221
aI241
aI224
aI222
aI221
aI219
aI234
aI220
aI219
aI220
aI205
aI236
aI215
aI229
aI232
aI224
aI226
aI233
aI216
aI237
aI231
aI218
aI234
aI234
aI225
aI242
aI213
aI224
aI207
aI228
aI222
aI226
aI228
aI238
aI228
aI234
aI236
aI209
aI230
aI212
aI227
aI220
aI232
aI222
aI219
aI252
aI235
aI231
aI220
aI225
aI239
aI242
aI243
aI245
aI232
aI227
aI234
aI220
aI235
aI216
aI234
aI228
aI222
aI216
aI208
aI209
aI214
aI244
aI229
aI228
aI235
aI249
aI218
aI214
aI237
aI252
aI213
aI214
aI210
aI216
aI216
aI220
aI224
aI233
aI225
aI224
aI226
aI242
aI236
aI245
aI233
aI245
aI215
aI227
aI214
aI213
aI228
aI224
aI233
aI227
aI217
aI241
aI227
aI245
asg26
g27
sg28
(lp128
F0.3732156333044492
aF0.3749438626952726
aF0.3836601922605556
aF0.3863219307784873
aF0.3903275495807937
aF0.38149397847503025
aF0.3837364384038375
aF0.37809550173529616
aF0.37756111087147426
aF0.36191555865857306
aF0.37002028544565724
aF0.37062291426619354
aF0.36750369301515284
aF0.3684804357267949
aF0.3744949781982378
aF0.3894859437962784
aF0.38116094536106954
aF0.3838824992318064
aF0.3850014058800419
aF0.38377522467449476
aF0.3682853315074364
aF0.3641251522884633
aF0.36313593964511687
aF0.3726667258755849
aF0.3650246314458576
aF0.3719439110984918
aF0.36199416717951005
aF0.3696133110438649
aF0.36177087512276146
aF0.36055040600312416
aF0.35841655238154446
aF0.35370505737477115
aF0.3692843564917613
aF0.35705208114785136
aF0.36800685397023997
aF0.3623255968205993
aF0.3640197976659464
aF0.3580612762012092
aF0.35899803765003396
aF0.3581978946718912
aF0.3556181370678612
aF0.36702561881821283
aF0.3535562374678526
aF0.35439372960168014
aF0.35962551652799757
aF0.3646882753518811
aF0.35213613494893065
aF0.3582015622308165
aF0.35189339821182897
aF0.3668857014322654
aF0.36062969213729074
aF0.3519950608379764
aF0.3585385303812745
aF0.36086174728476567
aF0.3616463633434018
aF0.35152318736513744
aF0.3592513267515251
aF0.35283852100536095
aF0.36219097364803726
aF0.3543614753946472
aF0.36559425160459325
aF0.3621557500935565
aF0.35595848522159806
aF0.35548655632824866
aF0.3528607714895844
aF0.3608954603435121
aF0.3644537976392631
aF0.36607593711159625
aF0.36892045184315636
aF0.3613828094032924
aF0.36021625220561526
aF0.36315973327236045
aF0.36371079715893617
aF0.35414630827622623
aF0.3534297194961898
aF0.35538957616038985
aF0.35922170960070077
aF0.36252114584892386
aF0.35803560696277936
aF0.3654280675787433
aF0.36676402415073817
aF0.3711659541355889
aF0.3527448789348436
aF0.3580556560636071
aF0.3712443794816521
aF0.36523246741971416
aF0.3607258397092797
aF0.3645889694243149
aF0.36610003725374146
aF0.363923072915168
aF0.3665578111191224
aF0.3636908061772567
aF0.36201505579763
aF0.35664711225542167
aF0.37795100902917056
aF0.35969158826394293
aF0.3736599363124144
aF0.3657421172047237
aF0.3647226421470615
aF0.37446802114704386
aF0.3218222033853373
aF0.32256304245270934
aF0.32399285020749286
aF0.3167125408972411
aF0.31093160563624356
aF0.3155979767044002
aF0.31232969760649854
aF0.31365130301305727
aF0.3142523883197101
aF0.3110424025846742
aF0.3240317977300642
aF0.3214114171202759
aF0.3119035327019157
aF0.3038201476830901
aF0.3190010321615936
aF0.31993931459994673
aF0.3177029239963561
aF0.31640174800621673
aF0.32194875120534194
aF0.3149013561776203
aF0.31775237341999124
aF0.31104075971089135
aF0.3171709855486102
aF0.31828402426530333
aF0.3127897805202017
aF0.3135225659798107
aF0.31806264104803494
aF0.30611686475521277
aF0.31575424375712363
aF0.31364368421118316
aF0.3123387285255794
aF0.3152428445414326
aF0.31910078346866416
aF0.31712509879367423
aF0.3089211356726599
aF0.3201326557205802
aF0.3225448784724675
aF0.3194428585147109
aF0.3210577862460242
aF0.326399119875087
aF0.3268012490953803
aF0.3230892752257493
aF0.31522548364324177
aF0.322172551475122
aF0.31432064991670394
aF0.3209838103136698
aF0.31676253525933573
aF0.31452912904637814
aF0.32382189336456807
aF0.3175677252882197
asba.