(iparams
Statistics
p0
(dp1
S'numMissedCars'
p2
(lp3
F0.0
aF0.0
aF0.013333333333333334
aF0.013333333333333334
aF0.06666666666666667
aF4.64
aF4.946666666666666
aF5.026666666666666
aF5.093333333333334
aF5.1866666666666665
aF5.506666666666667
aF5.28
aF5.706666666666667
aF5.76
asS'carsRequestingLC'
p4
(lp5
F64.01333333333334
aF132.28
aF202.36
aF262.53333333333336
aF319.48
aF361.38666666666666
aF373.6533333333333
aF389.68
aF402.5466666666667
aF412.94666666666666
aF419.7733333333333
aF436.0133333333333
aF451.12
aF456.1066666666667
asS'carsDoLC'
p6
(lp7
F63.8
aF131.2
aF199.89333333333335
aF256.9866666666667
aF309.28
aF331.37333333333333
aF339.7866666666667
aF352.96
aF362.96
aF369.81333333333333
aF374.36
aF386.72
aF397.76
aF403.53333333333336
asS'turnTime'
p8
(lp9
F1.058440357844035
aF2.097820272445679
aF3.1317838923136394
aF4.107762975692749
aF4.7448272800445555
aF5.12998337427775
aF5.464550422032674
aF5.854116579691569
aF6.273404086430867
aF6.669549579620361
aF7.027232179641723
aF7.565481192270915
aF8.181110235850015
aF8.575031871795654
asS'params'
p10
I0
sS'carsInCS'
p11
(lp12
F64.01333333333334
aF132.28
aF202.36
aF262.1066666666667
aF315.97333333333336
aF339.6933333333333
aF350.53333333333336
aF364.82666666666665
aF378.44
aF385.93333333333334
aF392.74666666666667
aF407.61333333333334
aF421.17333333333335
aF426.05333333333334
asS'numMadeCars'
p13
(lp14
F17.226666666666667
aF34.946666666666665
aF54.45333333333333
aF71.76
aF90.52
aF98.58666666666667
aF100.34666666666666
aF102.93333333333334
aF104.81333333333333
aF106.26666666666667
aF107.08
aF109.38666666666667
aF110.85333333333334
aF112.61333333333333
asS'statsPerSim'
p15
(lp16
sS'carsMakingLC'
p17
(lp18
F63.8
aF131.2
aF199.89333333333335
aF256.9866666666667
aF309.28
aF331.37333333333333
aF339.7866666666667
aF352.96
aF362.96
aF369.81333333333333
aF374.36
aF386.72
aF397.76
aF403.53333333333336
asS'costPerLaneChange'
p19
(lp20
F1.0321405338074137
aF1.032548346636699
aF1.0323299158809078
aF1.0333611526684534
aF1.0355065625457056
aF1.048952223536328
aF1.0517376841717827
aF1.0553359635855066
aF1.0574155618516585
aF1.0567719130443607
aF1.0555606686433856
aF1.0622733914795501
aF1.0600012443228026
aF1.0621262016249056
asb.