(iparams
Statistics
p0
(dp1
S'numMissedCars'
p2
(lp3
F0.0
aF0.0
aF1.8
aF8.233333333333333
aF19.766666666666666
aF36.233333333333334
aF61.7
aF104.7
asS'carsRequestingLC'
p4
(lp5
F35.5
aF77.2
aF198.96666666666667
aF311.96666666666664
aF462.73333333333335
aF625.5
aF818.2333333333333
aF1053.2
asS'carsDoLC'
p6
(lp7
F33.13333333333333
aF67.56666666666666
aF148.83333333333334
aF201.53333333333333
aF254.8
aF295.53333333333336
aF313.96666666666664
aF293.6666666666667
asS'turnTime'
p8
(lp9
F0.11880873044331869
aF0.25004826386769613
aF0.5862844149271648
aF0.877112340927124
aF1.206573518117269
aF1.4448325951894125
aF1.5412917852401733
aF1.5833479404449462
asS'params'
p10
I0
sS'carsInCS'
p11
(lp12
F35.5
aF77.2
aF198.8
aF310.23333333333335
aF458.1333333333333
aF587.8666666666667
aF624.9666666666667
aF552.5333333333333
asS'numMadeCars'
p13
(lp14
F16.733333333333334
aF34.833333333333336
aF70.2
aF100.83333333333333
aF125.3
aF143.66666666666666
aF156.0
aF150.73333333333332
asS'statsPerSim'
p15
(lp16
sS'carsMakingLC'
p17
(lp18
F33.13333333333333
aF67.56666666666666
aF148.83333333333334
aF201.53333333333333
aF254.8
aF295.53333333333336
aF313.96666666666664
aF293.6666666666667
asS'costPerLaneChange'
p19
(lp20
F1.0518985888490222
aF1.056146020136298
aF1.0976987516899077
aF1.165223584122747
aF1.3741554520514299
aF1.897611650155619
aF2.7659468962085594
aF3.813888242415503
asb.