(iparams
Statistics
p0
(dp1
S'numMissedCars'
p2
(lp3
F0.0
aF0.06
aF0.23
aF0.62
aF1.81
aF3.92
aF8.62
aF16.57
aF25.36
aF38.04
aF53.36
asS'carsRequestingLC'
p4
(lp5
F98.48
aF214.25
aF340.85
aF514.26
aF768.92
aF1140.0
aF1560.23
aF2022.19
aF2518.6
aF3047.51
aF3529.54
asS'carsDoLC'
p6
(lp7
F93.7
aF195.68
aF299.69
aF396.91
aF483.95
aF573.59
aF642.97
aF694.64
aF730.94
aF756.13
aF763.56
asS'turnTime'
p8
(lp9
F1.8698067235946656
aF3.980538902282715
aF6.24878680229187
aF8.559964339733124
aF11.334822120666503
aF14.11997460603714
aF16.72518218278885
aF18.709507417678832
aF21.389606025218963
aF21.25123123884201
aF24.031592197418213
asS'params'
p10
I0
sS'carsInCS'
p11
(lp12
F98.48
aF214.25
aF339.81
aF463.13
aF588.72
aF721.21
aF829.02
aF898.19
aF934.86
aF957.01
aF956.54
asS'numMadeCars'
p13
(lp14
F17.02
aF35.46
aF54.25
aF70.98
aF87.71
aF104.99
aF117.42
aF128.37
aF136.43
aF143.11
aF145.46
asS'statsPerSim'
p15
(lp16
sS'carsMakingLC'
p17
(lp18
F93.7
aF195.68
aF299.69
aF396.91
aF483.95
aF573.59
aF642.97
aF694.64
aF730.94
aF756.13
aF763.56
asS'costPerLaneChange'
p19
(lp20
F1.0356962968693804
aF1.0314413992913214
aF1.0014010731349956
aF0.9610549647571883
aF0.9399621949830964
aF0.9430890091119408
aF0.9535407442313973
aF0.9690176040226939
aF0.9946386324842088
aF1.0183563555446877
aF1.0354056898323858
asb.