(iparams
Statistics
p0
(dp1
S'numMissedCars'
p2
(lp3
F0.0
aF0.25
aF3.65
aF13.25
aF27.1
aF44.45
aF67.85
aF97.65
asS'carsRequestingLC'
p4
(lp5
F34.85
aF79.75
aF185.3
aF323.45
aF449.5
aF584.3
aF734.15
aF896.5
asS'carsDoLC'
p6
(lp7
F32.15
aF67.7
aF135.15
aF199.15
aF237.45
aF270.55
aF292.1
aF309.55
asS'turnTime'
p8
(lp9
F0.12598351240158082
aF0.2516124606132507
aF0.5926417350769043
aF0.9804210662841797
aF1.3537537574768066
aF1.6497302293777465
aF1.796957015991211
aF1.8539515733718872
asS'params'
p10
I0
sS'carsInCS'
p11
(lp12
F34.85
aF79.7
aF184.6
aF321.65
aF446.25
aF547.45
aF591.85
aF555.05
asS'numMadeCars'
p13
(lp14
F16.5
aF34.35
aF67.7
aF94.5
aF117.75
aF135.8
aF148.45
aF155.75
asS'statsPerSim'
p15
(lp16
sS'carsMakingLC'
p17
(lp18
F32.15
aF67.7
aF135.15
aF199.15
aF237.45
aF270.55
aF292.1
aF309.55
asS'costPerLaneChange'
p19
(lp20
F1.0556227052954585
aF1.0592954554158307
aF1.0609706026073307
aF1.1013781007583936
aF1.2343516129004493
aF1.9834344697571311
aF2.755380241057187
aF3.4656416679220663
asb.