(iparams
Statistics
p0
(dp1
S'numMissedCars'
p2
(lp3
I0
aI0
aI0
aI0
aI0
aI0
aI32
aI53
aI70
aI89
aI113
aI141
aI138
aI148
aI149
aI141
aI135
aI122
aI119
aI116
aI112
aI112
aI98
aI95
aI96
aI101
aI100
aI100
aI86
aI94
aI99
aI101
aI95
aI100
aI93
aI93
aI93
aI103
aI105
aI93
aI87
aI82
aI92
aI86
aI98
aI88
aI97
aI105
aI97
aI102
asS'carsRequestingLC'
p4
(lp5
I29
aI54
aI83
aI159
aI345
aI553
aI750
aI919
aI1060
aI1162
aI1256
aI1320
aI1334
aI1352
aI1355
aI1330
aI1318
aI1277
aI1254
aI1253
aI1218
aI1190
aI1192
aI1172
aI1170
aI1176
aI1158
aI1158
aI1157
aI1163
aI1156
aI1159
aI1173
aI1160
aI1165
aI1157
aI1155
aI1169
aI1178
aI1158
aI1157
aI1172
aI1185
aI1180
aI1177
aI1157
aI1165
aI1158
aI1159
aI1148
asS'carsDoLC'
p6
(lp7
I0
aI0
aI0
aI0
aI0
aI2
aI6
aI42
aI100
aI152
aI178
aI223
aI242
aI250
aI312
aI295
aI333
aI327
aI338
aI355
aI350
aI337
aI365
aI345
aI352
aI354
aI340
aI355
aI357
aI337
aI328
aI349
aI341
aI366
aI367
aI335
aI353
aI338
aI370
aI343
aI339
aI367
aI339
aI358
aI363
aI351
aI334
aI357
aI343
aI336
asS'turnTime'
p8
(lp9
F1.1529889106750488
aF1.0888481140136719
aF1.075589895248413
aF1.0317749977111816
aF0.9994239807128906
aF0.8784680366516113
aF0.9819860458374023
aF1.087589979171753
aF1.379883050918579
aF1.5904898643493652
aF1.8910858631134033
aF2.1854360103607178
aF2.2844760417938232
aF2.5490880012512207
aF2.822551965713501
aF2.9928340911865234
aF3.158174991607666
aF3.0656559467315674
aF2.970223903656006
aF3.0725860595703125
aF3.023344039916992
aF3.0096189975738525
aF2.905080795288086
aF2.9223620891571045
aF3.0345828533172607
aF2.9880900382995605
aF2.992060899734497
aF2.9401609897613525
aF2.8539440631866455
aF2.954245090484619
aF3.0614049434661865
aF2.9177608489990234
aF3.0003230571746826
aF3.1277639865875244
aF2.9962449073791504
aF2.934087038040161
aF2.993997097015381
aF2.949678897857666
aF2.9444739818573
aF2.8969919681549072
aF3.0696041584014893
aF2.921509027481079
aF2.9755008220672607
aF2.9155499935150146
aF2.8376400470733643
aF2.964210033416748
aF2.8839499950408936
aF3.0341989994049072
aF2.9595229625701904
aF2.9236249923706055
asS'params'
p10
(iparams
RoadParameters
p11
(dp12
g8
F7.261904761904764
sS'flow'
p13
I7
sbsS'carsInCS'
p14
(lp15
I0
aI0
aI0
aI0
aI0
aI2
aI6
aI43
aI102
aI183
aI243
aI310
aI354
aI391
aI466
aI485
aI514
aI511
aI524
aI558
aI550
aI567
aI562
aI559
aI560
aI565
aI558
aI554
aI571
aI549
aI558
aI552
aI573
aI575
aI583
aI573
aI564
aI558
aI555
aI556
aI555
aI554
aI550
aI550
aI565
aI572
aI558
aI549
aI571
aI547
asS'numMadeCars'
p16
(lp17
I0
aI0
aI2
aI4
aI11
aI13
aI20
aI15
aI29
aI29
aI37
aI50
aI51
aI71
aI78
aI103
aI126
aI125
aI139
aI140
aI133
aI147
aI137
aI139
aI140
aI144
aI144
aI144
aI131
aI146
aI144
aI139
aI141
aI142
aI146
aI127
aI147
aI139
aI128
aI139
aI143
aI166
aI135
aI164
aI127
aI153
aI132
aI152
aI149
aI147
asS'statsPerSim'
p18
(lp19
sS'carsMakingLC'
p20
(lp21
I0
aI0
aI0
aI0
aI0
aI2
aI6
aI42
aI100
aI152
aI177
aI220
aI240
aI242
aI310
aI287
aI322
aI323
aI328
aI337
aI340
aI326
aI349
aI329
aI342
aI343
aI328
aI338
aI336
aI322
aI315
aI334
aI329
aI356
aI356
aI323
aI345
aI320
aI353
aI331
aI326
aI356
aI330
aI352
aI342
aI340
aI322
aI343
aI333
aI319
asS'costPerLaneChange'
p22
(lp23
I0
aI0
aI0
aI0
aI0
aF1.0666487503359308
aF0.9600584059863171
aF1.0666487503359299
aF1.0666487503359294
aF1.026516843577792
aF0.9934337229594651
aF0.8344120645837619
aF0.8300655216296428
aF0.7856303706737624
aF0.7698578645107486
aF0.7096004814828925
aF0.6944560467945134
aF0.7142184452038425
aF0.8193792126488686
aF0.7228139477091616
aF0.6726460733443337
aF0.6809327775648742
aF0.6919658339972912
aF0.6793872499079078
aF0.6077039130050269
aF0.7558600089149448
aF0.7185417582753667
aF0.6759561594736095
aF0.6686481530276629
aF0.6918734260446476
aF0.6179857787038802
aF0.6937499722075249
aF0.6431345022286569
aF0.6453435545889269
aF0.6256780466625782
aF0.6240678531768846
aF0.5801654564651818
aF0.6406407236904701
aF0.7758108696966766
aF0.6331062186832844
aF0.639419860805547
aF0.6123529414039417
aF0.644427943942704
aF0.7346525071658174
aF0.6762490991917096
aF0.6870535069256246
aF0.6384648556868544
aF0.7069553507928085
aF0.7376410605899621
aF0.6371609062966985
asb.